
./output/esp8266.shakti:     file format elf64-littleriscv


Disassembly of section .text.init:

0000000080000000 <_start>:
    80000000:	00000297          	auipc	t0,0x0
    80000004:	4d028293          	addi	t0,t0,1232 # 800004d0 <trap_entry>
    80000008:	30529073          	csrw	mtvec,t0
    8000000c:	4081                	li	ra,0
    8000000e:	4101                	li	sp,0
    80000010:	4181                	li	gp,0
    80000012:	4201                	li	tp,0
    80000014:	4281                	li	t0,0
    80000016:	4301                	li	t1,0
    80000018:	4381                	li	t2,0
    8000001a:	4401                	li	s0,0
    8000001c:	4481                	li	s1,0
    8000001e:	4501                	li	a0,0
    80000020:	4581                	li	a1,0
    80000022:	4601                	li	a2,0
    80000024:	4681                	li	a3,0
    80000026:	4701                	li	a4,0
    80000028:	4781                	li	a5,0
    8000002a:	4801                	li	a6,0
    8000002c:	4881                	li	a7,0
    8000002e:	4901                	li	s2,0
    80000030:	4981                	li	s3,0
    80000032:	4a01                	li	s4,0
    80000034:	4a81                	li	s5,0
    80000036:	4b01                	li	s6,0
    80000038:	4b81                	li	s7,0
    8000003a:	4c01                	li	s8,0
    8000003c:	4c81                	li	s9,0
    8000003e:	4d01                	li	s10,0
    80000040:	4d81                	li	s11,0
    80000042:	4e01                	li	t3,0
    80000044:	4e81                	li	t4,0
    80000046:	4f01                	li	t5,0
    80000048:	4f81                	li	t6,0
    8000004a:	00006197          	auipc	gp,0x6
    8000004e:	be618193          	addi	gp,gp,-1050 # 80005c30 <__global_pointer$>
    80000052:	08000117          	auipc	sp,0x8000
    80000056:	bae10113          	addi	sp,sp,-1106 # 87fffc00 <__stack_pointer$>
    8000005a:	0000d217          	auipc	tp,0xd
    8000005e:	d8520213          	addi	tp,tp,-635 # 8000cddf <__bss_end+0x3f>
    80000062:	fc027213          	andi	tp,tp,-64
    80000066:	46b0106f          	j	80001cd0 <init>

Disassembly of section .text:

0000000080000070 <write_to_esp8266>:
    80000070:	1101                	addi	sp,sp,-32
    80000072:	ec06                	sd	ra,24(sp)
    80000074:	e822                	sd	s0,16(sp)
    80000076:	1000                	addi	s0,sp,32
    80000078:	fea43423          	sd	a0,-24(s0)
    8000007c:	feb43023          	sd	a1,-32(s0)
    80000080:	a839                	j	8000009e <write_to_esp8266+0x2e>
    80000082:	fe043783          	ld	a5,-32(s0)
    80000086:	0007c783          	lbu	a5,0(a5)
    8000008a:	85be                	mv	a1,a5
    8000008c:	fe843503          	ld	a0,-24(s0)
    80000090:	252010ef          	jal	ra,800012e2 <write_uart_character>
    80000094:	fe043783          	ld	a5,-32(s0)
    80000098:	0785                	addi	a5,a5,1
    8000009a:	fef43023          	sd	a5,-32(s0)
    8000009e:	fe043783          	ld	a5,-32(s0)
    800000a2:	0007c783          	lbu	a5,0(a5)
    800000a6:	fff1                	bnez	a5,80000082 <write_to_esp8266+0x12>
    800000a8:	45b5                	li	a1,13
    800000aa:	fe843503          	ld	a0,-24(s0)
    800000ae:	234010ef          	jal	ra,800012e2 <write_uart_character>
    800000b2:	45a9                	li	a1,10
    800000b4:	fe843503          	ld	a0,-24(s0)
    800000b8:	22a010ef          	jal	ra,800012e2 <write_uart_character>
    800000bc:	0001                	nop
    800000be:	853e                	mv	a0,a5
    800000c0:	60e2                	ld	ra,24(sp)
    800000c2:	6442                	ld	s0,16(sp)
    800000c4:	6105                	addi	sp,sp,32
    800000c6:	8082                	ret

00000000800000c8 <write_enter_to_esp8266>:
    800000c8:	1101                	addi	sp,sp,-32
    800000ca:	ec06                	sd	ra,24(sp)
    800000cc:	e822                	sd	s0,16(sp)
    800000ce:	1000                	addi	s0,sp,32
    800000d0:	fea43423          	sd	a0,-24(s0)
    800000d4:	45b5                	li	a1,13
    800000d6:	fe843503          	ld	a0,-24(s0)
    800000da:	208010ef          	jal	ra,800012e2 <write_uart_character>
    800000de:	45a9                	li	a1,10
    800000e0:	fe843503          	ld	a0,-24(s0)
    800000e4:	1fe010ef          	jal	ra,800012e2 <write_uart_character>
    800000e8:	0001                	nop
    800000ea:	853e                	mv	a0,a5
    800000ec:	60e2                	ld	ra,24(sp)
    800000ee:	6442                	ld	s0,16(sp)
    800000f0:	6105                	addi	sp,sp,32
    800000f2:	8082                	ret

00000000800000f4 <read_from_esp8266>:
    800000f4:	7139                	addi	sp,sp,-64
    800000f6:	fc06                	sd	ra,56(sp)
    800000f8:	f822                	sd	s0,48(sp)
    800000fa:	0080                	addi	s0,sp,64
    800000fc:	fca43423          	sd	a0,-56(s0)
    80000100:	fcb43023          	sd	a1,-64(s0)
    80000104:	fc043783          	ld	a5,-64(s0)
    80000108:	fef43423          	sd	a5,-24(s0)
    8000010c:	fc043783          	ld	a5,-64(s0)
    80000110:	fcf43c23          	sd	a5,-40(s0)
    80000114:	fe042223          	sw	zero,-28(s0)
    80000118:	a061                	j	800001a0 <read_from_esp8266+0xac>
    8000011a:	fd440793          	addi	a5,s0,-44
    8000011e:	85be                	mv	a1,a5
    80000120:	fc843503          	ld	a0,-56(s0)
    80000124:	24e010ef          	jal	ra,80001372 <read_uart_character>
    80000128:	fd442783          	lw	a5,-44(s0)
    8000012c:	0ff7f713          	andi	a4,a5,255
    80000130:	fe843783          	ld	a5,-24(s0)
    80000134:	00e78023          	sb	a4,0(a5)
    80000138:	fe843783          	ld	a5,-24(s0)
    8000013c:	0785                	addi	a5,a5,1
    8000013e:	fef43423          	sd	a5,-24(s0)
    80000142:	fe843783          	ld	a5,-24(s0)
    80000146:	00078023          	sb	zero,0(a5)
    8000014a:	00004597          	auipc	a1,0x4
    8000014e:	10658593          	addi	a1,a1,262 # 80004250 <__rodata_start>
    80000152:	fd843503          	ld	a0,-40(s0)
    80000156:	585030ef          	jal	ra,80003eda <strstr>
    8000015a:	87aa                	mv	a5,a0
    8000015c:	e3a5                	bnez	a5,800001bc <read_from_esp8266+0xc8>
    8000015e:	00004597          	auipc	a1,0x4
    80000162:	0fa58593          	addi	a1,a1,250 # 80004258 <__rodata_start+0x8>
    80000166:	fd843503          	ld	a0,-40(s0)
    8000016a:	571030ef          	jal	ra,80003eda <strstr>
    8000016e:	87aa                	mv	a5,a0
    80000170:	eba1                	bnez	a5,800001c0 <read_from_esp8266+0xcc>
    80000172:	03e00593          	li	a1,62
    80000176:	fd843503          	ld	a0,-40(s0)
    8000017a:	0d9030ef          	jal	ra,80003a52 <strchr>
    8000017e:	87aa                	mv	a5,a0
    80000180:	e3b1                	bnez	a5,800001c4 <read_from_esp8266+0xd0>
    80000182:	00004597          	auipc	a1,0x4
    80000186:	0de58593          	addi	a1,a1,222 # 80004260 <__rodata_start+0x10>
    8000018a:	fd843503          	ld	a0,-40(s0)
    8000018e:	54d030ef          	jal	ra,80003eda <strstr>
    80000192:	87aa                	mv	a5,a0
    80000194:	eb95                	bnez	a5,800001c8 <read_from_esp8266+0xd4>
    80000196:	fe442783          	lw	a5,-28(s0)
    8000019a:	2785                	addiw	a5,a5,1
    8000019c:	fef42223          	sw	a5,-28(s0)
    800001a0:	fe442783          	lw	a5,-28(s0)
    800001a4:	0007871b          	sext.w	a4,a5
    800001a8:	0c500793          	li	a5,197
    800001ac:	f6e7d7e3          	bge	a5,a4,8000011a <read_from_esp8266+0x26>
    800001b0:	fe843783          	ld	a5,-24(s0)
    800001b4:	00078023          	sb	zero,0(a5)
    800001b8:	4785                	li	a5,1
    800001ba:	a801                	j	800001ca <read_from_esp8266+0xd6>
    800001bc:	0001                	nop
    800001be:	a031                	j	800001ca <read_from_esp8266+0xd6>
    800001c0:	0001                	nop
    800001c2:	a021                	j	800001ca <read_from_esp8266+0xd6>
    800001c4:	0001                	nop
    800001c6:	a011                	j	800001ca <read_from_esp8266+0xd6>
    800001c8:	0001                	nop
    800001ca:	853e                	mv	a0,a5
    800001cc:	70e2                	ld	ra,56(sp)
    800001ce:	7442                	ld	s0,48(sp)
    800001d0:	6121                	addi	sp,sp,64
    800001d2:	8082                	ret

00000000800001d4 <main>:
    800001d4:	7115                	addi	sp,sp,-224
    800001d6:	ed86                	sd	ra,216(sp)
    800001d8:	e9a2                	sd	s0,208(sp)
    800001da:	1180                	addi	s0,sp,224
    800001dc:	fe042623          	sw	zero,-20(s0)
    800001e0:	6789                	lui	a5,0x2
    800001e2:	58078793          	addi	a5,a5,1408 # 2580 <_tbss_end+0x2580>
    800001e6:	fef42423          	sw	a5,-24(s0)
    800001ea:	00004517          	auipc	a0,0x4
    800001ee:	07e50513          	addi	a0,a0,126 # 80004268 <__rodata_start+0x18>
    800001f2:	775000ef          	jal	ra,80001166 <printf>
    800001f6:	fe842783          	lw	a5,-24(s0)
    800001fa:	85be                	mv	a1,a5
    800001fc:	00004517          	auipc	a0,0x4
    80000200:	09c50513          	addi	a0,a0,156 # 80004298 <__rodata_start+0x48>
    80000204:	763000ef          	jal	ra,80001166 <printf>
    80000208:	0000d797          	auipc	a5,0xd
    8000020c:	8e078793          	addi	a5,a5,-1824 # 8000cae8 <uart_instance>
    80000210:	6798                	ld	a4,8(a5)
    80000212:	6789                	lui	a5,0x2
    80000214:	58078593          	addi	a1,a5,1408 # 2580 <_tbss_end+0x2580>
    80000218:	853a                	mv	a0,a4
    8000021a:	05c010ef          	jal	ra,80001276 <set_baud_rate>
    8000021e:	0000d797          	auipc	a5,0xd
    80000222:	8ca78793          	addi	a5,a5,-1846 # 8000cae8 <uart_instance>
    80000226:	679c                	ld	a5,8(a5)
    80000228:	853e                	mv	a0,a5
    8000022a:	240010ef          	jal	ra,8000146a <flush_uart>
    8000022e:	00004517          	auipc	a0,0x4
    80000232:	08250513          	addi	a0,a0,130 # 800042b0 <__rodata_start+0x60>
    80000236:	731000ef          	jal	ra,80001166 <printf>
    8000023a:	0000d797          	auipc	a5,0xd
    8000023e:	8ae78793          	addi	a5,a5,-1874 # 8000cae8 <uart_instance>
    80000242:	679c                	ld	a5,8(a5)
    80000244:	00004597          	auipc	a1,0x4
    80000248:	08c58593          	addi	a1,a1,140 # 800042d0 <__rodata_start+0x80>
    8000024c:	853e                	mv	a0,a5
    8000024e:	e23ff0ef          	jal	ra,80000070 <write_to_esp8266>
    80000252:	0000d797          	auipc	a5,0xd
    80000256:	89678793          	addi	a5,a5,-1898 # 8000cae8 <uart_instance>
    8000025a:	679c                	ld	a5,8(a5)
    8000025c:	f2040713          	addi	a4,s0,-224
    80000260:	85ba                	mv	a1,a4
    80000262:	853e                	mv	a0,a5
    80000264:	e91ff0ef          	jal	ra,800000f4 <read_from_esp8266>
    80000268:	f2040793          	addi	a5,s0,-224
    8000026c:	85be                	mv	a1,a5
    8000026e:	00004517          	auipc	a0,0x4
    80000272:	06a50513          	addi	a0,a0,106 # 800042d8 <__rodata_start+0x88>
    80000276:	6f1000ef          	jal	ra,80001166 <printf>
    8000027a:	0000d797          	auipc	a5,0xd
    8000027e:	86e78793          	addi	a5,a5,-1938 # 8000cae8 <uart_instance>
    80000282:	679c                	ld	a5,8(a5)
    80000284:	853e                	mv	a0,a5
    80000286:	1e4010ef          	jal	ra,8000146a <flush_uart>
    8000028a:	00004517          	auipc	a0,0x4
    8000028e:	06650513          	addi	a0,a0,102 # 800042f0 <__rodata_start+0xa0>
    80000292:	6d5000ef          	jal	ra,80001166 <printf>
    80000296:	0000d797          	auipc	a5,0xd
    8000029a:	85278793          	addi	a5,a5,-1966 # 8000cae8 <uart_instance>
    8000029e:	679c                	ld	a5,8(a5)
    800002a0:	00004597          	auipc	a1,0x4
    800002a4:	07858593          	addi	a1,a1,120 # 80004318 <__rodata_start+0xc8>
    800002a8:	853e                	mv	a0,a5
    800002aa:	dc7ff0ef          	jal	ra,80000070 <write_to_esp8266>
    800002ae:	0000d797          	auipc	a5,0xd
    800002b2:	83a78793          	addi	a5,a5,-1990 # 8000cae8 <uart_instance>
    800002b6:	679c                	ld	a5,8(a5)
    800002b8:	f2040713          	addi	a4,s0,-224
    800002bc:	85ba                	mv	a1,a4
    800002be:	853e                	mv	a0,a5
    800002c0:	e35ff0ef          	jal	ra,800000f4 <read_from_esp8266>
    800002c4:	f2040793          	addi	a5,s0,-224
    800002c8:	85be                	mv	a1,a5
    800002ca:	00004517          	auipc	a0,0x4
    800002ce:	00e50513          	addi	a0,a0,14 # 800042d8 <__rodata_start+0x88>
    800002d2:	695000ef          	jal	ra,80001166 <printf>
    800002d6:	00004517          	auipc	a0,0x4
    800002da:	04a50513          	addi	a0,a0,74 # 80004320 <__rodata_start+0xd0>
    800002de:	689000ef          	jal	ra,80001166 <printf>
    800002e2:	0000d797          	auipc	a5,0xd
    800002e6:	80678793          	addi	a5,a5,-2042 # 8000cae8 <uart_instance>
    800002ea:	679c                	ld	a5,8(a5)
    800002ec:	853e                	mv	a0,a5
    800002ee:	17c010ef          	jal	ra,8000146a <flush_uart>
    800002f2:	0000c797          	auipc	a5,0xc
    800002f6:	7f678793          	addi	a5,a5,2038 # 8000cae8 <uart_instance>
    800002fa:	679c                	ld	a5,8(a5)
    800002fc:	00004597          	auipc	a1,0x4
    80000300:	03c58593          	addi	a1,a1,60 # 80004338 <__rodata_start+0xe8>
    80000304:	853e                	mv	a0,a5
    80000306:	d6bff0ef          	jal	ra,80000070 <write_to_esp8266>
    8000030a:	0000c797          	auipc	a5,0xc
    8000030e:	7de78793          	addi	a5,a5,2014 # 8000cae8 <uart_instance>
    80000312:	679c                	ld	a5,8(a5)
    80000314:	f2040713          	addi	a4,s0,-224
    80000318:	85ba                	mv	a1,a4
    8000031a:	853e                	mv	a0,a5
    8000031c:	dd9ff0ef          	jal	ra,800000f4 <read_from_esp8266>
    80000320:	f2040793          	addi	a5,s0,-224
    80000324:	85be                	mv	a1,a5
    80000326:	00004517          	auipc	a0,0x4
    8000032a:	fb250513          	addi	a0,a0,-78 # 800042d8 <__rodata_start+0x88>
    8000032e:	639000ef          	jal	ra,80001166 <printf>
    80000332:	7d000593          	li	a1,2000
    80000336:	7d000513          	li	a0,2000
    8000033a:	616000ef          	jal	ra,80000950 <delay_loop>
    8000033e:	f2040793          	addi	a5,s0,-224
    80000342:	85be                	mv	a1,a5
    80000344:	00004517          	auipc	a0,0x4
    80000348:	00450513          	addi	a0,a0,4 # 80004348 <__rodata_start+0xf8>
    8000034c:	61b000ef          	jal	ra,80001166 <printf>
    80000350:	0000c797          	auipc	a5,0xc
    80000354:	79878793          	addi	a5,a5,1944 # 8000cae8 <uart_instance>
    80000358:	679c                	ld	a5,8(a5)
    8000035a:	853e                	mv	a0,a5
    8000035c:	10e010ef          	jal	ra,8000146a <flush_uart>
    80000360:	0000c797          	auipc	a5,0xc
    80000364:	78878793          	addi	a5,a5,1928 # 8000cae8 <uart_instance>
    80000368:	679c                	ld	a5,8(a5)
    8000036a:	00004597          	auipc	a1,0x4
    8000036e:	00658593          	addi	a1,a1,6 # 80004370 <__rodata_start+0x120>
    80000372:	853e                	mv	a0,a5
    80000374:	cfdff0ef          	jal	ra,80000070 <write_to_esp8266>
    80000378:	0000c797          	auipc	a5,0xc
    8000037c:	77078793          	addi	a5,a5,1904 # 8000cae8 <uart_instance>
    80000380:	679c                	ld	a5,8(a5)
    80000382:	f2040713          	addi	a4,s0,-224
    80000386:	85ba                	mv	a1,a4
    80000388:	853e                	mv	a0,a5
    8000038a:	d6bff0ef          	jal	ra,800000f4 <read_from_esp8266>
    8000038e:	f2040793          	addi	a5,s0,-224
    80000392:	85be                	mv	a1,a5
    80000394:	00004517          	auipc	a0,0x4
    80000398:	f4450513          	addi	a0,a0,-188 # 800042d8 <__rodata_start+0x88>
    8000039c:	5cb000ef          	jal	ra,80001166 <printf>
    800003a0:	00004517          	auipc	a0,0x4
    800003a4:	00050513          	mv	a0,a0
    800003a8:	5bf000ef          	jal	ra,80001166 <printf>
    800003ac:	0000c797          	auipc	a5,0xc
    800003b0:	73c78793          	addi	a5,a5,1852 # 8000cae8 <uart_instance>
    800003b4:	679c                	ld	a5,8(a5)
    800003b6:	853e                	mv	a0,a5
    800003b8:	0b2010ef          	jal	ra,8000146a <flush_uart>
    800003bc:	0000c797          	auipc	a5,0xc
    800003c0:	72c78793          	addi	a5,a5,1836 # 8000cae8 <uart_instance>
    800003c4:	679c                	ld	a5,8(a5)
    800003c6:	00004597          	auipc	a1,0x4
    800003ca:	ff258593          	addi	a1,a1,-14 # 800043b8 <__rodata_start+0x168>
    800003ce:	853e                	mv	a0,a5
    800003d0:	ca1ff0ef          	jal	ra,80000070 <write_to_esp8266>
    800003d4:	0000c797          	auipc	a5,0xc
    800003d8:	71478793          	addi	a5,a5,1812 # 8000cae8 <uart_instance>
    800003dc:	679c                	ld	a5,8(a5)
    800003de:	f2040713          	addi	a4,s0,-224
    800003e2:	85ba                	mv	a1,a4
    800003e4:	853e                	mv	a0,a5
    800003e6:	d0fff0ef          	jal	ra,800000f4 <read_from_esp8266>
    800003ea:	f2040793          	addi	a5,s0,-224
    800003ee:	85be                	mv	a1,a5
    800003f0:	00004517          	auipc	a0,0x4
    800003f4:	ee850513          	addi	a0,a0,-280 # 800042d8 <__rodata_start+0x88>
    800003f8:	56f000ef          	jal	ra,80001166 <printf>
    800003fc:	00004517          	auipc	a0,0x4
    80000400:	fcc50513          	addi	a0,a0,-52 # 800043c8 <__rodata_start+0x178>
    80000404:	563000ef          	jal	ra,80001166 <printf>
    80000408:	0000c797          	auipc	a5,0xc
    8000040c:	6e078793          	addi	a5,a5,1760 # 8000cae8 <uart_instance>
    80000410:	679c                	ld	a5,8(a5)
    80000412:	853e                	mv	a0,a5
    80000414:	056010ef          	jal	ra,8000146a <flush_uart>
    80000418:	0000c797          	auipc	a5,0xc
    8000041c:	6d078793          	addi	a5,a5,1744 # 8000cae8 <uart_instance>
    80000420:	679c                	ld	a5,8(a5)
    80000422:	00004597          	auipc	a1,0x4
    80000426:	fb658593          	addi	a1,a1,-74 # 800043d8 <__rodata_start+0x188>
    8000042a:	853e                	mv	a0,a5
    8000042c:	c45ff0ef          	jal	ra,80000070 <write_to_esp8266>
    80000430:	0000c797          	auipc	a5,0xc
    80000434:	6b878793          	addi	a5,a5,1720 # 8000cae8 <uart_instance>
    80000438:	679c                	ld	a5,8(a5)
    8000043a:	853e                	mv	a0,a5
    8000043c:	c8dff0ef          	jal	ra,800000c8 <write_enter_to_esp8266>
    80000440:	0000c797          	auipc	a5,0xc
    80000444:	6a878793          	addi	a5,a5,1704 # 8000cae8 <uart_instance>
    80000448:	679c                	ld	a5,8(a5)
    8000044a:	f2040713          	addi	a4,s0,-224
    8000044e:	85ba                	mv	a1,a4
    80000450:	853e                	mv	a0,a5
    80000452:	ca3ff0ef          	jal	ra,800000f4 <read_from_esp8266>
    80000456:	f2040793          	addi	a5,s0,-224
    8000045a:	85be                	mv	a1,a5
    8000045c:	00004517          	auipc	a0,0x4
    80000460:	e7c50513          	addi	a0,a0,-388 # 800042d8 <__rodata_start+0x88>
    80000464:	503000ef          	jal	ra,80001166 <printf>
    80000468:	00004517          	auipc	a0,0x4
    8000046c:	fc050513          	addi	a0,a0,-64 # 80004428 <__rodata_start+0x1d8>
    80000470:	4f7000ef          	jal	ra,80001166 <printf>
    80000474:	0000c797          	auipc	a5,0xc
    80000478:	67478793          	addi	a5,a5,1652 # 8000cae8 <uart_instance>
    8000047c:	679c                	ld	a5,8(a5)
    8000047e:	853e                	mv	a0,a5
    80000480:	7eb000ef          	jal	ra,8000146a <flush_uart>
    80000484:	0000c797          	auipc	a5,0xc
    80000488:	66478793          	addi	a5,a5,1636 # 8000cae8 <uart_instance>
    8000048c:	679c                	ld	a5,8(a5)
    8000048e:	00004597          	auipc	a1,0x4
    80000492:	fb258593          	addi	a1,a1,-78 # 80004440 <__rodata_start+0x1f0>
    80000496:	853e                	mv	a0,a5
    80000498:	bd9ff0ef          	jal	ra,80000070 <write_to_esp8266>
    8000049c:	0000c797          	auipc	a5,0xc
    800004a0:	64c78793          	addi	a5,a5,1612 # 8000cae8 <uart_instance>
    800004a4:	679c                	ld	a5,8(a5)
    800004a6:	f2040713          	addi	a4,s0,-224
    800004aa:	85ba                	mv	a1,a4
    800004ac:	853e                	mv	a0,a5
    800004ae:	c47ff0ef          	jal	ra,800000f4 <read_from_esp8266>
    800004b2:	f2040793          	addi	a5,s0,-224
    800004b6:	85be                	mv	a1,a5
    800004b8:	00004517          	auipc	a0,0x4
    800004bc:	e2050513          	addi	a0,a0,-480 # 800042d8 <__rodata_start+0x88>
    800004c0:	4a7000ef          	jal	ra,80001166 <printf>
    800004c4:	0001                	nop
    800004c6:	60ee                	ld	ra,216(sp)
    800004c8:	644e                	ld	s0,208(sp)
    800004ca:	612d                	addi	sp,sp,224
    800004cc:	8082                	ret
	...

00000000800004d0 <trap_entry>:
    800004d0:	7111                	addi	sp,sp,-256
    800004d2:	0001                	nop
    800004d4:	00000013          	nop
    800004d8:	e406                	sd	ra,8(sp)
    800004da:	e80a                	sd	sp,16(sp)
    800004dc:	ec0e                	sd	gp,24(sp)
    800004de:	f012                	sd	tp,32(sp)
    800004e0:	f416                	sd	t0,40(sp)
    800004e2:	f81a                	sd	t1,48(sp)
    800004e4:	fc1e                	sd	t2,56(sp)
    800004e6:	e0a2                	sd	s0,64(sp)
    800004e8:	e4a6                	sd	s1,72(sp)
    800004ea:	e8aa                	sd	a0,80(sp)
    800004ec:	ecae                	sd	a1,88(sp)
    800004ee:	f0b2                	sd	a2,96(sp)
    800004f0:	f4b6                	sd	a3,104(sp)
    800004f2:	f8ba                	sd	a4,112(sp)
    800004f4:	fcbe                	sd	a5,120(sp)
    800004f6:	e142                	sd	a6,128(sp)
    800004f8:	e546                	sd	a7,136(sp)
    800004fa:	e94a                	sd	s2,144(sp)
    800004fc:	ed4e                	sd	s3,152(sp)
    800004fe:	f152                	sd	s4,160(sp)
    80000500:	f556                	sd	s5,168(sp)
    80000502:	f95a                	sd	s6,176(sp)
    80000504:	fd5e                	sd	s7,184(sp)
    80000506:	e1e2                	sd	s8,192(sp)
    80000508:	e5e6                	sd	s9,200(sp)
    8000050a:	e9ea                	sd	s10,208(sp)
    8000050c:	edee                	sd	s11,216(sp)
    8000050e:	f1f2                	sd	t3,224(sp)
    80000510:	f5f6                	sd	t4,232(sp)
    80000512:	f9fa                	sd	t5,240(sp)
    80000514:	fdfe                	sd	t6,248(sp)
    80000516:	34202573          	csrr	a0,mcause
    8000051a:	341025f3          	csrr	a1,mepc
    8000051e:	860a                	mv	a2,sp
    80000520:	566000ef          	jal	ra,80000a86 <handle_trap>
    80000524:	34151073          	csrw	mepc,a0
    80000528:	60a2                	ld	ra,8(sp)
    8000052a:	6142                	ld	sp,16(sp)
    8000052c:	61e2                	ld	gp,24(sp)
    8000052e:	7202                	ld	tp,32(sp)
    80000530:	72a2                	ld	t0,40(sp)
    80000532:	7342                	ld	t1,48(sp)
    80000534:	73e2                	ld	t2,56(sp)
    80000536:	6406                	ld	s0,64(sp)
    80000538:	64a6                	ld	s1,72(sp)
    8000053a:	6546                	ld	a0,80(sp)
    8000053c:	65e6                	ld	a1,88(sp)
    8000053e:	7606                	ld	a2,96(sp)
    80000540:	76a6                	ld	a3,104(sp)
    80000542:	7746                	ld	a4,112(sp)
    80000544:	77e6                	ld	a5,120(sp)
    80000546:	680a                	ld	a6,128(sp)
    80000548:	68aa                	ld	a7,136(sp)
    8000054a:	694a                	ld	s2,144(sp)
    8000054c:	69ea                	ld	s3,152(sp)
    8000054e:	7a0a                	ld	s4,160(sp)
    80000550:	7aaa                	ld	s5,168(sp)
    80000552:	7b4a                	ld	s6,176(sp)
    80000554:	7bea                	ld	s7,184(sp)
    80000556:	6c0e                	ld	s8,192(sp)
    80000558:	6cae                	ld	s9,200(sp)
    8000055a:	6d4e                	ld	s10,208(sp)
    8000055c:	6dee                	ld	s11,216(sp)
    8000055e:	7e0e                	ld	t3,224(sp)
    80000560:	7eae                	ld	t4,232(sp)
    80000562:	7f4e                	ld	t5,240(sp)
    80000564:	7fee                	ld	t6,248(sp)
    80000566:	6111                	addi	sp,sp,256
    80000568:	30200073          	mret
	...

000000008000056e <waitfor>:
    8000056e:	7179                	addi	sp,sp,-48
    80000570:	f422                	sd	s0,40(sp)
    80000572:	1800                	addi	s0,sp,48
    80000574:	87aa                	mv	a5,a0
    80000576:	fcf42e23          	sw	a5,-36(s0)
    8000057a:	fe042623          	sw	zero,-20(s0)
    8000057e:	0001                	nop
    80000580:	fec42783          	lw	a5,-20(s0)
    80000584:	0017871b          	addiw	a4,a5,1
    80000588:	fee42623          	sw	a4,-20(s0)
    8000058c:	fdc42703          	lw	a4,-36(s0)
    80000590:	2701                	sext.w	a4,a4
    80000592:	fee7e7e3          	bltu	a5,a4,80000580 <waitfor+0x12>
    80000596:	0001                	nop
    80000598:	0001                	nop
    8000059a:	7422                	ld	s0,40(sp)
    8000059c:	6145                	addi	sp,sp,48
    8000059e:	8082                	ret

00000000800005a0 <delay>:
    800005a0:	7179                	addi	sp,sp,-48
    800005a2:	f422                	sd	s0,40(sp)
    800005a4:	1800                	addi	s0,sp,48
    800005a6:	fca43c23          	sd	a0,-40(s0)
    800005aa:	fd843703          	ld	a4,-40(s0)
    800005ae:	3e800793          	li	a5,1000
    800005b2:	02f707b3          	mul	a5,a4,a5
    800005b6:	fef43423          	sd	a5,-24(s0)
    800005ba:	a829                	j	800005d4 <delay+0x34>
    800005bc:	3e800793          	li	a5,1000
    800005c0:	fef43023          	sd	a5,-32(s0)
    800005c4:	0001                	nop
    800005c6:	fe043783          	ld	a5,-32(s0)
    800005ca:	fff78713          	addi	a4,a5,-1
    800005ce:	fee43023          	sd	a4,-32(s0)
    800005d2:	fbf5                	bnez	a5,800005c6 <delay+0x26>
    800005d4:	fe843783          	ld	a5,-24(s0)
    800005d8:	fff78713          	addi	a4,a5,-1
    800005dc:	fee43423          	sd	a4,-24(s0)
    800005e0:	fff1                	bnez	a5,800005bc <delay+0x1c>
    800005e2:	0001                	nop
    800005e4:	0001                	nop
    800005e6:	7422                	ld	s0,40(sp)
    800005e8:	6145                	addi	sp,sp,48
    800005ea:	8082                	ret

00000000800005ec <pow_10>:
    800005ec:	7179                	addi	sp,sp,-48
    800005ee:	f406                	sd	ra,40(sp)
    800005f0:	f022                	sd	s0,32(sp)
    800005f2:	1800                	addi	s0,sp,48
    800005f4:	87aa                	mv	a5,a0
    800005f6:	fcf42e23          	sw	a5,-36(s0)
    800005fa:	4785                	li	a5,1
    800005fc:	fef42623          	sw	a5,-20(s0)
    80000600:	fe042423          	sw	zero,-24(s0)
    80000604:	a005                	j	80000624 <pow_10+0x38>
    80000606:	fec42703          	lw	a4,-20(s0)
    8000060a:	87ba                	mv	a5,a4
    8000060c:	0027979b          	slliw	a5,a5,0x2
    80000610:	9fb9                	addw	a5,a5,a4
    80000612:	0017979b          	slliw	a5,a5,0x1
    80000616:	fef42623          	sw	a5,-20(s0)
    8000061a:	fe842783          	lw	a5,-24(s0)
    8000061e:	2785                	addiw	a5,a5,1
    80000620:	fef42423          	sw	a5,-24(s0)
    80000624:	fe842703          	lw	a4,-24(s0)
    80000628:	fdc42783          	lw	a5,-36(s0)
    8000062c:	2701                	sext.w	a4,a4
    8000062e:	2781                	sext.w	a5,a5
    80000630:	fcf76be3          	bltu	a4,a5,80000606 <pow_10+0x1a>
    80000634:	fec42783          	lw	a5,-20(s0)
    80000638:	853e                	mv	a0,a5
    8000063a:	1ea030ef          	jal	ra,80003824 <__floatunsisf>
    8000063e:	87aa                	mv	a5,a0
    80000640:	853e                	mv	a0,a5
    80000642:	70a2                	ld	ra,40(sp)
    80000644:	7402                	ld	s0,32(sp)
    80000646:	6145                	addi	sp,sp,48
    80000648:	8082                	ret

000000008000064a <reverse>:
    8000064a:	7179                	addi	sp,sp,-48
    8000064c:	f422                	sd	s0,40(sp)
    8000064e:	1800                	addi	s0,sp,48
    80000650:	fca43c23          	sd	a0,-40(s0)
    80000654:	87ae                	mv	a5,a1
    80000656:	fcf42a23          	sw	a5,-44(s0)
    8000065a:	fe042623          	sw	zero,-20(s0)
    8000065e:	fd442783          	lw	a5,-44(s0)
    80000662:	37fd                	addiw	a5,a5,-1
    80000664:	fef42423          	sw	a5,-24(s0)
    80000668:	a899                	j	800006be <reverse+0x74>
    8000066a:	fec42783          	lw	a5,-20(s0)
    8000066e:	fd843703          	ld	a4,-40(s0)
    80000672:	97ba                	add	a5,a5,a4
    80000674:	0007c783          	lbu	a5,0(a5)
    80000678:	fef403a3          	sb	a5,-25(s0)
    8000067c:	fe842783          	lw	a5,-24(s0)
    80000680:	fd843703          	ld	a4,-40(s0)
    80000684:	973e                	add	a4,a4,a5
    80000686:	fec42783          	lw	a5,-20(s0)
    8000068a:	fd843683          	ld	a3,-40(s0)
    8000068e:	97b6                	add	a5,a5,a3
    80000690:	00074703          	lbu	a4,0(a4)
    80000694:	00e78023          	sb	a4,0(a5)
    80000698:	fe842783          	lw	a5,-24(s0)
    8000069c:	fd843703          	ld	a4,-40(s0)
    800006a0:	97ba                	add	a5,a5,a4
    800006a2:	fe744703          	lbu	a4,-25(s0)
    800006a6:	00e78023          	sb	a4,0(a5)
    800006aa:	fec42783          	lw	a5,-20(s0)
    800006ae:	2785                	addiw	a5,a5,1
    800006b0:	fef42623          	sw	a5,-20(s0)
    800006b4:	fe842783          	lw	a5,-24(s0)
    800006b8:	37fd                	addiw	a5,a5,-1
    800006ba:	fef42423          	sw	a5,-24(s0)
    800006be:	fec42703          	lw	a4,-20(s0)
    800006c2:	fe842783          	lw	a5,-24(s0)
    800006c6:	2701                	sext.w	a4,a4
    800006c8:	2781                	sext.w	a5,a5
    800006ca:	faf740e3          	blt	a4,a5,8000066a <reverse+0x20>
    800006ce:	0001                	nop
    800006d0:	0001                	nop
    800006d2:	7422                	ld	s0,40(sp)
    800006d4:	6145                	addi	sp,sp,48
    800006d6:	8082                	ret

00000000800006d8 <int_to_string>:
    800006d8:	7179                	addi	sp,sp,-48
    800006da:	f406                	sd	ra,40(sp)
    800006dc:	f022                	sd	s0,32(sp)
    800006de:	1800                	addi	s0,sp,48
    800006e0:	87aa                	mv	a5,a0
    800006e2:	fcb43823          	sd	a1,-48(s0)
    800006e6:	8732                	mv	a4,a2
    800006e8:	fcf42e23          	sw	a5,-36(s0)
    800006ec:	87ba                	mv	a5,a4
    800006ee:	fcf42c23          	sw	a5,-40(s0)
    800006f2:	fe042623          	sw	zero,-20(s0)
    800006f6:	a081                	j	80000736 <int_to_string+0x5e>
    800006f8:	fdc42703          	lw	a4,-36(s0)
    800006fc:	47a9                	li	a5,10
    800006fe:	02f767bb          	remw	a5,a4,a5
    80000702:	2781                	sext.w	a5,a5
    80000704:	0ff7f713          	andi	a4,a5,255
    80000708:	fec42783          	lw	a5,-20(s0)
    8000070c:	fd043683          	ld	a3,-48(s0)
    80000710:	97b6                	add	a5,a5,a3
    80000712:	0307071b          	addiw	a4,a4,48
    80000716:	0ff77713          	andi	a4,a4,255
    8000071a:	00e78023          	sb	a4,0(a5)
    8000071e:	fec42783          	lw	a5,-20(s0)
    80000722:	2785                	addiw	a5,a5,1
    80000724:	fef42623          	sw	a5,-20(s0)
    80000728:	fdc42703          	lw	a4,-36(s0)
    8000072c:	47a9                	li	a5,10
    8000072e:	02f747bb          	divw	a5,a4,a5
    80000732:	fcf42e23          	sw	a5,-36(s0)
    80000736:	fdc42783          	lw	a5,-36(s0)
    8000073a:	2781                	sext.w	a5,a5
    8000073c:	ffd5                	bnez	a5,800006f8 <int_to_string+0x20>
    8000073e:	a839                	j	8000075c <int_to_string+0x84>
    80000740:	fec42783          	lw	a5,-20(s0)
    80000744:	fd043703          	ld	a4,-48(s0)
    80000748:	97ba                	add	a5,a5,a4
    8000074a:	03000713          	li	a4,48
    8000074e:	00e78023          	sb	a4,0(a5)
    80000752:	fec42783          	lw	a5,-20(s0)
    80000756:	2785                	addiw	a5,a5,1
    80000758:	fef42623          	sw	a5,-20(s0)
    8000075c:	fec42703          	lw	a4,-20(s0)
    80000760:	fd842783          	lw	a5,-40(s0)
    80000764:	2781                	sext.w	a5,a5
    80000766:	fcf76de3          	bltu	a4,a5,80000740 <int_to_string+0x68>
    8000076a:	fec42783          	lw	a5,-20(s0)
    8000076e:	85be                	mv	a1,a5
    80000770:	fd043503          	ld	a0,-48(s0)
    80000774:	ed7ff0ef          	jal	ra,8000064a <reverse>
    80000778:	fec42783          	lw	a5,-20(s0)
    8000077c:	fd043703          	ld	a4,-48(s0)
    80000780:	97ba                	add	a5,a5,a4
    80000782:	00078023          	sb	zero,0(a5)
    80000786:	fec42783          	lw	a5,-20(s0)
    8000078a:	853e                	mv	a0,a5
    8000078c:	70a2                	ld	ra,40(sp)
    8000078e:	7402                	ld	s0,32(sp)
    80000790:	6145                	addi	sp,sp,48
    80000792:	8082                	ret

0000000080000794 <ftoa>:
    80000794:	715d                	addi	sp,sp,-80
    80000796:	e486                	sd	ra,72(sp)
    80000798:	e0a2                	sd	s0,64(sp)
    8000079a:	0880                	addi	s0,sp,80
    8000079c:	faa42e23          	sw	a0,-68(s0)
    800007a0:	fab43823          	sd	a1,-80(s0)
    800007a4:	87b2                	mv	a5,a2
    800007a6:	faf42c23          	sw	a5,-72(s0)
    800007aa:	fe042623          	sw	zero,-20(s0)
    800007ae:	fc043023          	sd	zero,-64(s0)
    800007b2:	fc043423          	sd	zero,-56(s0)
    800007b6:	fc043823          	sd	zero,-48(s0)
    800007ba:	fc042c23          	sw	zero,-40(s0)
    800007be:	fc041e23          	sh	zero,-36(s0)
    800007c2:	fbc42503          	lw	a0,-68(s0)
    800007c6:	112030ef          	jal	ra,800038d8 <__extendsfdf2>
    800007ca:	872a                	mv	a4,a0
    800007cc:	00004797          	auipc	a5,0x4
    800007d0:	c9c78793          	addi	a5,a5,-868 # 80004468 <__rodata_start+0x218>
    800007d4:	638c                	ld	a1,0(a5)
    800007d6:	853a                	mv	a0,a4
    800007d8:	5a2020ef          	jal	ra,80002d7a <__adddf3>
    800007dc:	87aa                	mv	a5,a0
    800007de:	853e                	mv	a0,a5
    800007e0:	166030ef          	jal	ra,80003946 <__truncdfsf2>
    800007e4:	87aa                	mv	a5,a0
    800007e6:	faf42e23          	sw	a5,-68(s0)
    800007ea:	fbc42503          	lw	a0,-68(s0)
    800007ee:	6fd020ef          	jal	ra,800036ea <__fixsfsi>
    800007f2:	87aa                	mv	a5,a0
    800007f4:	fef42423          	sw	a5,-24(s0)
    800007f8:	fe842783          	lw	a5,-24(s0)
    800007fc:	853e                	mv	a0,a5
    800007fe:	759020ef          	jal	ra,80003756 <__floatsisf>
    80000802:	87aa                	mv	a5,a0
    80000804:	85be                	mv	a1,a5
    80000806:	fbc42503          	lw	a0,-68(s0)
    8000080a:	383020ef          	jal	ra,8000338c <__subsf3>
    8000080e:	87aa                	mv	a5,a0
    80000810:	fef42223          	sw	a5,-28(s0)
    80000814:	fe042023          	sw	zero,-32(s0)
    80000818:	00000593          	li	a1,0
    8000081c:	fbc42503          	lw	a0,-68(s0)
    80000820:	0fb020ef          	jal	ra,8000311a <__lesf2>
    80000824:	87aa                	mv	a5,a0
    80000826:	0007de63          	bgez	a5,80000842 <ftoa+0xae>
    8000082a:	fe042783          	lw	a5,-32(s0)
    8000082e:	fb043703          	ld	a4,-80(s0)
    80000832:	97ba                	add	a5,a5,a4
    80000834:	02d00713          	li	a4,45
    80000838:	00e78023          	sb	a4,0(a5)
    8000083c:	4785                	li	a5,1
    8000083e:	fef42023          	sw	a5,-32(s0)
    80000842:	fe842783          	lw	a5,-24(s0)
    80000846:	2781                	sext.w	a5,a5
    80000848:	e385                	bnez	a5,80000868 <ftoa+0xd4>
    8000084a:	fe042783          	lw	a5,-32(s0)
    8000084e:	fb043703          	ld	a4,-80(s0)
    80000852:	97ba                	add	a5,a5,a4
    80000854:	03000713          	li	a4,48
    80000858:	00e78023          	sb	a4,0(a5)
    8000085c:	fe042783          	lw	a5,-32(s0)
    80000860:	2785                	addiw	a5,a5,1
    80000862:	fef42023          	sw	a5,-32(s0)
    80000866:	a099                	j	800008ac <ftoa+0x118>
    80000868:	fe842783          	lw	a5,-24(s0)
    8000086c:	2781                	sext.w	a5,a5
    8000086e:	0007d863          	bgez	a5,8000087e <ftoa+0xea>
    80000872:	fe842783          	lw	a5,-24(s0)
    80000876:	40f007bb          	negw	a5,a5
    8000087a:	fef42423          	sw	a5,-24(s0)
    8000087e:	fc040713          	addi	a4,s0,-64
    80000882:	fe842783          	lw	a5,-24(s0)
    80000886:	4601                	li	a2,0
    80000888:	85ba                	mv	a1,a4
    8000088a:	853e                	mv	a0,a5
    8000088c:	e4dff0ef          	jal	ra,800006d8 <int_to_string>
    80000890:	87aa                	mv	a5,a0
    80000892:	fef42623          	sw	a5,-20(s0)
    80000896:	fe042783          	lw	a5,-32(s0)
    8000089a:	fb043703          	ld	a4,-80(s0)
    8000089e:	97ba                	add	a5,a5,a4
    800008a0:	fc040713          	addi	a4,s0,-64
    800008a4:	85ba                	mv	a1,a4
    800008a6:	853e                	mv	a0,a5
    800008a8:	294030ef          	jal	ra,80003b3c <strcpy>
    800008ac:	fec42703          	lw	a4,-20(s0)
    800008b0:	fe042783          	lw	a5,-32(s0)
    800008b4:	9fb9                	addw	a5,a5,a4
    800008b6:	fef42623          	sw	a5,-20(s0)
    800008ba:	fb842783          	lw	a5,-72(s0)
    800008be:	2781                	sext.w	a5,a5
    800008c0:	c3d9                	beqz	a5,80000946 <ftoa+0x1b2>
    800008c2:	fec42783          	lw	a5,-20(s0)
    800008c6:	fb043703          	ld	a4,-80(s0)
    800008ca:	97ba                	add	a5,a5,a4
    800008cc:	02e00713          	li	a4,46
    800008d0:	00e78023          	sb	a4,0(a5)
    800008d4:	00000593          	li	a1,0
    800008d8:	fe442503          	lw	a0,-28(s0)
    800008dc:	03f020ef          	jal	ra,8000311a <__lesf2>
    800008e0:	87aa                	mv	a5,a0
    800008e2:	0007da63          	bgez	a5,800008f6 <ftoa+0x162>
    800008e6:	fe442703          	lw	a4,-28(s0)
    800008ea:	800007b7          	lui	a5,0x80000
    800008ee:	8fb9                	xor	a5,a5,a4
    800008f0:	fef42223          	sw	a5,-28(s0)
    800008f4:	a039                	j	80000902 <ftoa+0x16e>
    800008f6:	00000593          	li	a1,0
    800008fa:	fe442503          	lw	a0,-28(s0)
    800008fe:	7be020ef          	jal	ra,800030bc <__eqsf2>
    80000902:	fb842783          	lw	a5,-72(s0)
    80000906:	853e                	mv	a0,a5
    80000908:	ce5ff0ef          	jal	ra,800005ec <pow_10>
    8000090c:	87aa                	mv	a5,a0
    8000090e:	85be                	mv	a1,a5
    80000910:	fe442503          	lw	a0,-28(s0)
    80000914:	08b020ef          	jal	ra,8000319e <__mulsf3>
    80000918:	87aa                	mv	a5,a0
    8000091a:	fef42223          	sw	a5,-28(s0)
    8000091e:	fe442503          	lw	a0,-28(s0)
    80000922:	5c9020ef          	jal	ra,800036ea <__fixsfsi>
    80000926:	87aa                	mv	a5,a0
    80000928:	0007869b          	sext.w	a3,a5
    8000092c:	fec42783          	lw	a5,-20(s0)
    80000930:	0785                	addi	a5,a5,1
    80000932:	fb043703          	ld	a4,-80(s0)
    80000936:	97ba                	add	a5,a5,a4
    80000938:	fb842703          	lw	a4,-72(s0)
    8000093c:	863a                	mv	a2,a4
    8000093e:	85be                	mv	a1,a5
    80000940:	8536                	mv	a0,a3
    80000942:	d97ff0ef          	jal	ra,800006d8 <int_to_string>
    80000946:	0001                	nop
    80000948:	60a6                	ld	ra,72(sp)
    8000094a:	6406                	ld	s0,64(sp)
    8000094c:	6161                	addi	sp,sp,80
    8000094e:	8082                	ret

0000000080000950 <delay_loop>:
    80000950:	7179                	addi	sp,sp,-48
    80000952:	f422                	sd	s0,40(sp)
    80000954:	1800                	addi	s0,sp,48
    80000956:	fca43c23          	sd	a0,-40(s0)
    8000095a:	fcb43823          	sd	a1,-48(s0)
    8000095e:	fd043783          	ld	a5,-48(s0)
    80000962:	fef43423          	sd	a5,-24(s0)
    80000966:	a829                	j	80000980 <delay_loop+0x30>
    80000968:	fd043783          	ld	a5,-48(s0)
    8000096c:	fef43423          	sd	a5,-24(s0)
    80000970:	0001                	nop
    80000972:	fe843783          	ld	a5,-24(s0)
    80000976:	fff78713          	addi	a4,a5,-1 # ffffffff7fffffff <__stack_pointer$+0xfffffffef80003ff>
    8000097a:	fee43423          	sd	a4,-24(s0)
    8000097e:	fbf5                	bnez	a5,80000972 <delay_loop+0x22>
    80000980:	fd843783          	ld	a5,-40(s0)
    80000984:	fff78713          	addi	a4,a5,-1
    80000988:	fce43c23          	sd	a4,-40(s0)
    8000098c:	fff1                	bnez	a5,80000968 <delay_loop+0x18>
    8000098e:	0001                	nop
    80000990:	0001                	nop
    80000992:	7422                	ld	s0,40(sp)
    80000994:	6145                	addi	sp,sp,48
    80000996:	8082                	ret

0000000080000998 <read_word>:
    80000998:	1101                	addi	sp,sp,-32
    8000099a:	ec06                	sd	ra,24(sp)
    8000099c:	e822                	sd	s0,16(sp)
    8000099e:	1000                	addi	s0,sp,32
    800009a0:	fea43423          	sd	a0,-24(s0)
    800009a4:	fe843783          	ld	a5,-24(s0)
    800009a8:	439c                	lw	a5,0(a5)
    800009aa:	863e                	mv	a2,a5
    800009ac:	fe843583          	ld	a1,-24(s0)
    800009b0:	00004517          	auipc	a0,0x4
    800009b4:	aa050513          	addi	a0,a0,-1376 # 80004450 <__rodata_start+0x200>
    800009b8:	21e000ef          	jal	ra,80000bd6 <log_debug>
    800009bc:	fe843783          	ld	a5,-24(s0)
    800009c0:	439c                	lw	a5,0(a5)
    800009c2:	1782                	slli	a5,a5,0x20
    800009c4:	9381                	srli	a5,a5,0x20
    800009c6:	853e                	mv	a0,a5
    800009c8:	60e2                	ld	ra,24(sp)
    800009ca:	6442                	ld	s0,16(sp)
    800009cc:	6105                	addi	sp,sp,32
    800009ce:	8082                	ret

00000000800009d0 <write_word>:
    800009d0:	1101                	addi	sp,sp,-32
    800009d2:	ec06                	sd	ra,24(sp)
    800009d4:	e822                	sd	s0,16(sp)
    800009d6:	1000                	addi	s0,sp,32
    800009d8:	fea43423          	sd	a0,-24(s0)
    800009dc:	feb43023          	sd	a1,-32(s0)
    800009e0:	fe043783          	ld	a5,-32(s0)
    800009e4:	0007871b          	sext.w	a4,a5
    800009e8:	fe843783          	ld	a5,-24(s0)
    800009ec:	c398                	sw	a4,0(a5)
    800009ee:	fe843783          	ld	a5,-24(s0)
    800009f2:	439c                	lw	a5,0(a5)
    800009f4:	863e                	mv	a2,a5
    800009f6:	fe843583          	ld	a1,-24(s0)
    800009fa:	00004517          	auipc	a0,0x4
    800009fe:	a5650513          	addi	a0,a0,-1450 # 80004450 <__rodata_start+0x200>
    80000a02:	1d4000ef          	jal	ra,80000bd6 <log_debug>
    80000a06:	0001                	nop
    80000a08:	60e2                	ld	ra,24(sp)
    80000a0a:	6442                	ld	s0,16(sp)
    80000a0c:	6105                	addi	sp,sp,32
    80000a0e:	8082                	ret

0000000080000a10 <extract_ie_code>:
    80000a10:	7179                	addi	sp,sp,-48
    80000a12:	f406                	sd	ra,40(sp)
    80000a14:	f022                	sd	s0,32(sp)
    80000a16:	1800                	addi	s0,sp,48
    80000a18:	87aa                	mv	a5,a0
    80000a1a:	fcf42e23          	sw	a5,-36(s0)
    80000a1e:	00004517          	auipc	a0,0x4
    80000a22:	a5250513          	addi	a0,a0,-1454 # 80004470 <__rodata_start+0x220>
    80000a26:	142000ef          	jal	ra,80000b68 <log_trace>
    80000a2a:	fdc42703          	lw	a4,-36(s0)
    80000a2e:	800007b7          	lui	a5,0x80000
    80000a32:	fff7c793          	not	a5,a5
    80000a36:	8ff9                	and	a5,a5,a4
    80000a38:	fef42623          	sw	a5,-20(s0)
    80000a3c:	fec42783          	lw	a5,-20(s0)
    80000a40:	85be                	mv	a1,a5
    80000a42:	00004517          	auipc	a0,0x4
    80000a46:	a4e50513          	addi	a0,a0,-1458 # 80004490 <__rodata_start+0x240>
    80000a4a:	18c000ef          	jal	ra,80000bd6 <log_debug>
    80000a4e:	00004517          	auipc	a0,0x4
    80000a52:	a5a50513          	addi	a0,a0,-1446 # 800044a8 <__rodata_start+0x258>
    80000a56:	112000ef          	jal	ra,80000b68 <log_trace>
    80000a5a:	fec42783          	lw	a5,-20(s0)
    80000a5e:	853e                	mv	a0,a5
    80000a60:	70a2                	ld	ra,40(sp)
    80000a62:	7402                	ld	s0,32(sp)
    80000a64:	6145                	addi	sp,sp,48
    80000a66:	8082                	ret

0000000080000a68 <default_handler>:
    80000a68:	1101                	addi	sp,sp,-32
    80000a6a:	ec06                	sd	ra,24(sp)
    80000a6c:	e822                	sd	s0,16(sp)
    80000a6e:	1000                	addi	s0,sp,32
    80000a70:	fea43423          	sd	a0,-24(s0)
    80000a74:	feb43023          	sd	a1,-32(s0)
    80000a78:	00004517          	auipc	a0,0x4
    80000a7c:	a4850513          	addi	a0,a0,-1464 # 800044c0 <__rodata_start+0x270>
    80000a80:	0e8000ef          	jal	ra,80000b68 <log_trace>
    80000a84:	a001                	j	80000a84 <default_handler+0x1c>

0000000080000a86 <handle_trap>:
    80000a86:	7179                	addi	sp,sp,-48
    80000a88:	f406                	sd	ra,40(sp)
    80000a8a:	f022                	sd	s0,32(sp)
    80000a8c:	1800                	addi	s0,sp,48
    80000a8e:	fca43c23          	sd	a0,-40(s0)
    80000a92:	fcb43823          	sd	a1,-48(s0)
    80000a96:	fe042623          	sw	zero,-20(s0)
    80000a9a:	fe042423          	sw	zero,-24(s0)
    80000a9e:	00004517          	auipc	a0,0x4
    80000aa2:	a4250513          	addi	a0,a0,-1470 # 800044e0 <__rodata_start+0x290>
    80000aa6:	0c2000ef          	jal	ra,80000b68 <log_trace>
    80000aaa:	fd043603          	ld	a2,-48(s0)
    80000aae:	fd843583          	ld	a1,-40(s0)
    80000ab2:	00004517          	auipc	a0,0x4
    80000ab6:	a4650513          	addi	a0,a0,-1466 # 800044f8 <__rodata_start+0x2a8>
    80000aba:	0d2000ef          	jal	ra,80000b8c <log_info>
    80000abe:	45a1                	li	a1,8
    80000ac0:	00004517          	auipc	a0,0x4
    80000ac4:	a5050513          	addi	a0,a0,-1456 # 80004510 <__rodata_start+0x2c0>
    80000ac8:	10e000ef          	jal	ra,80000bd6 <log_debug>
    80000acc:	03f00793          	li	a5,63
    80000ad0:	fef42423          	sw	a5,-24(s0)
    80000ad4:	fe842783          	lw	a5,-24(s0)
    80000ad8:	4705                	li	a4,1
    80000ada:	00f717bb          	sllw	a5,a4,a5
    80000ade:	2781                	sext.w	a5,a5
    80000ae0:	873e                	mv	a4,a5
    80000ae2:	fd843783          	ld	a5,-40(s0)
    80000ae6:	8ff9                	and	a5,a5,a4
    80000ae8:	cf9d                	beqz	a5,80000b26 <handle_trap+0xa0>
    80000aea:	fd843783          	ld	a5,-40(s0)
    80000aee:	2781                	sext.w	a5,a5
    80000af0:	853e                	mv	a0,a5
    80000af2:	f1fff0ef          	jal	ra,80000a10 <extract_ie_code>
    80000af6:	87aa                	mv	a5,a0
    80000af8:	fef42623          	sw	a5,-20(s0)
    80000afc:	00004517          	auipc	a0,0x4
    80000b00:	a2c50513          	addi	a0,a0,-1492 # 80004528 <__rodata_start+0x2d8>
    80000b04:	0d2000ef          	jal	ra,80000bd6 <log_debug>
    80000b08:	0000c717          	auipc	a4,0xc
    80000b0c:	ee070713          	addi	a4,a4,-288 # 8000c9e8 <mcause_interrupt_table>
    80000b10:	fec46783          	lwu	a5,-20(s0)
    80000b14:	078e                	slli	a5,a5,0x3
    80000b16:	97ba                	add	a5,a5,a4
    80000b18:	639c                	ld	a5,0(a5)
    80000b1a:	fd043583          	ld	a1,-48(s0)
    80000b1e:	fd843503          	ld	a0,-40(s0)
    80000b22:	9782                	jalr	a5
    80000b24:	a02d                	j	80000b4e <handle_trap+0xc8>
    80000b26:	00004517          	auipc	a0,0x4
    80000b2a:	a2250513          	addi	a0,a0,-1502 # 80004548 <__rodata_start+0x2f8>
    80000b2e:	0a8000ef          	jal	ra,80000bd6 <log_debug>
    80000b32:	0000c717          	auipc	a4,0xc
    80000b36:	f3670713          	addi	a4,a4,-202 # 8000ca68 <mcause_trap_table>
    80000b3a:	fd843783          	ld	a5,-40(s0)
    80000b3e:	078e                	slli	a5,a5,0x3
    80000b40:	97ba                	add	a5,a5,a4
    80000b42:	639c                	ld	a5,0(a5)
    80000b44:	fd043583          	ld	a1,-48(s0)
    80000b48:	fd843503          	ld	a0,-40(s0)
    80000b4c:	9782                	jalr	a5
    80000b4e:	00004517          	auipc	a0,0x4
    80000b52:	a1a50513          	addi	a0,a0,-1510 # 80004568 <__rodata_start+0x318>
    80000b56:	012000ef          	jal	ra,80000b68 <log_trace>
    80000b5a:	fd043783          	ld	a5,-48(s0)
    80000b5e:	853e                	mv	a0,a5
    80000b60:	70a2                	ld	ra,40(sp)
    80000b62:	7402                	ld	s0,32(sp)
    80000b64:	6145                	addi	sp,sp,48
    80000b66:	8082                	ret

0000000080000b68 <log_trace>:
    80000b68:	7159                	addi	sp,sp,-112
    80000b6a:	f422                	sd	s0,40(sp)
    80000b6c:	1800                	addi	s0,sp,48
    80000b6e:	fca43c23          	sd	a0,-40(s0)
    80000b72:	e40c                	sd	a1,8(s0)
    80000b74:	e810                	sd	a2,16(s0)
    80000b76:	ec14                	sd	a3,24(s0)
    80000b78:	f018                	sd	a4,32(s0)
    80000b7a:	f41c                	sd	a5,40(s0)
    80000b7c:	03043823          	sd	a6,48(s0)
    80000b80:	03143c23          	sd	a7,56(s0)
    80000b84:	0001                	nop
    80000b86:	7422                	ld	s0,40(sp)
    80000b88:	6165                	addi	sp,sp,112
    80000b8a:	8082                	ret

0000000080000b8c <log_info>:
    80000b8c:	7159                	addi	sp,sp,-112
    80000b8e:	f406                	sd	ra,40(sp)
    80000b90:	f022                	sd	s0,32(sp)
    80000b92:	1800                	addi	s0,sp,48
    80000b94:	fca43c23          	sd	a0,-40(s0)
    80000b98:	e40c                	sd	a1,8(s0)
    80000b9a:	e810                	sd	a2,16(s0)
    80000b9c:	ec14                	sd	a3,24(s0)
    80000b9e:	f018                	sd	a4,32(s0)
    80000ba0:	f41c                	sd	a5,40(s0)
    80000ba2:	03043823          	sd	a6,48(s0)
    80000ba6:	03143c23          	sd	a7,56(s0)
    80000baa:	04040793          	addi	a5,s0,64
    80000bae:	fcf43823          	sd	a5,-48(s0)
    80000bb2:	fd043783          	ld	a5,-48(s0)
    80000bb6:	fc878793          	addi	a5,a5,-56 # ffffffff7fffffc8 <__stack_pointer$+0xfffffffef80003c8>
    80000bba:	fef43423          	sd	a5,-24(s0)
    80000bbe:	fe843783          	ld	a5,-24(s0)
    80000bc2:	85be                	mv	a1,a5
    80000bc4:	fd843503          	ld	a0,-40(s0)
    80000bc8:	1ea000ef          	jal	ra,80000db2 <_printf_>
    80000bcc:	0001                	nop
    80000bce:	70a2                	ld	ra,40(sp)
    80000bd0:	7402                	ld	s0,32(sp)
    80000bd2:	6165                	addi	sp,sp,112
    80000bd4:	8082                	ret

0000000080000bd6 <log_debug>:
    80000bd6:	7159                	addi	sp,sp,-112
    80000bd8:	f422                	sd	s0,40(sp)
    80000bda:	1800                	addi	s0,sp,48
    80000bdc:	fca43c23          	sd	a0,-40(s0)
    80000be0:	e40c                	sd	a1,8(s0)
    80000be2:	e810                	sd	a2,16(s0)
    80000be4:	ec14                	sd	a3,24(s0)
    80000be6:	f018                	sd	a4,32(s0)
    80000be8:	f41c                	sd	a5,40(s0)
    80000bea:	03043823          	sd	a6,48(s0)
    80000bee:	03143c23          	sd	a7,56(s0)
    80000bf2:	0001                	nop
    80000bf4:	7422                	ld	s0,40(sp)
    80000bf6:	6165                	addi	sp,sp,112
    80000bf8:	8082                	ret

0000000080000bfa <log_warn>:
    80000bfa:	7159                	addi	sp,sp,-112
    80000bfc:	f406                	sd	ra,40(sp)
    80000bfe:	f022                	sd	s0,32(sp)
    80000c00:	1800                	addi	s0,sp,48
    80000c02:	fca43c23          	sd	a0,-40(s0)
    80000c06:	e40c                	sd	a1,8(s0)
    80000c08:	e810                	sd	a2,16(s0)
    80000c0a:	ec14                	sd	a3,24(s0)
    80000c0c:	f018                	sd	a4,32(s0)
    80000c0e:	f41c                	sd	a5,40(s0)
    80000c10:	03043823          	sd	a6,48(s0)
    80000c14:	03143c23          	sd	a7,56(s0)
    80000c18:	04040793          	addi	a5,s0,64
    80000c1c:	fcf43823          	sd	a5,-48(s0)
    80000c20:	fd043783          	ld	a5,-48(s0)
    80000c24:	fc878793          	addi	a5,a5,-56
    80000c28:	fef43423          	sd	a5,-24(s0)
    80000c2c:	fe843783          	ld	a5,-24(s0)
    80000c30:	85be                	mv	a1,a5
    80000c32:	fd843503          	ld	a0,-40(s0)
    80000c36:	17c000ef          	jal	ra,80000db2 <_printf_>
    80000c3a:	0001                	nop
    80000c3c:	70a2                	ld	ra,40(sp)
    80000c3e:	7402                	ld	s0,32(sp)
    80000c40:	6165                	addi	sp,sp,112
    80000c42:	8082                	ret

0000000080000c44 <log_error>:
    80000c44:	7159                	addi	sp,sp,-112
    80000c46:	f406                	sd	ra,40(sp)
    80000c48:	f022                	sd	s0,32(sp)
    80000c4a:	1800                	addi	s0,sp,48
    80000c4c:	fca43c23          	sd	a0,-40(s0)
    80000c50:	e40c                	sd	a1,8(s0)
    80000c52:	e810                	sd	a2,16(s0)
    80000c54:	ec14                	sd	a3,24(s0)
    80000c56:	f018                	sd	a4,32(s0)
    80000c58:	f41c                	sd	a5,40(s0)
    80000c5a:	03043823          	sd	a6,48(s0)
    80000c5e:	03143c23          	sd	a7,56(s0)
    80000c62:	04040793          	addi	a5,s0,64
    80000c66:	fcf43823          	sd	a5,-48(s0)
    80000c6a:	fd043783          	ld	a5,-48(s0)
    80000c6e:	fc878793          	addi	a5,a5,-56
    80000c72:	fef43423          	sd	a5,-24(s0)
    80000c76:	fe843783          	ld	a5,-24(s0)
    80000c7a:	85be                	mv	a1,a5
    80000c7c:	fd843503          	ld	a0,-40(s0)
    80000c80:	132000ef          	jal	ra,80000db2 <_printf_>
    80000c84:	0001                	nop
    80000c86:	70a2                	ld	ra,40(sp)
    80000c88:	7402                	ld	s0,32(sp)
    80000c8a:	6165                	addi	sp,sp,112
    80000c8c:	8082                	ret

0000000080000c8e <log_fatal>:
    80000c8e:	7159                	addi	sp,sp,-112
    80000c90:	f406                	sd	ra,40(sp)
    80000c92:	f022                	sd	s0,32(sp)
    80000c94:	1800                	addi	s0,sp,48
    80000c96:	fca43c23          	sd	a0,-40(s0)
    80000c9a:	e40c                	sd	a1,8(s0)
    80000c9c:	e810                	sd	a2,16(s0)
    80000c9e:	ec14                	sd	a3,24(s0)
    80000ca0:	f018                	sd	a4,32(s0)
    80000ca2:	f41c                	sd	a5,40(s0)
    80000ca4:	03043823          	sd	a6,48(s0)
    80000ca8:	03143c23          	sd	a7,56(s0)
    80000cac:	04040793          	addi	a5,s0,64
    80000cb0:	fcf43823          	sd	a5,-48(s0)
    80000cb4:	fd043783          	ld	a5,-48(s0)
    80000cb8:	fc878793          	addi	a5,a5,-56
    80000cbc:	fef43423          	sd	a5,-24(s0)
    80000cc0:	fe843783          	ld	a5,-24(s0)
    80000cc4:	85be                	mv	a1,a5
    80000cc6:	fd843503          	ld	a0,-40(s0)
    80000cca:	0e8000ef          	jal	ra,80000db2 <_printf_>
    80000cce:	00004517          	auipc	a0,0x4
    80000cd2:	8b250513          	addi	a0,a0,-1870 # 80004580 <__rodata_start+0x330>
    80000cd6:	eb7ff0ef          	jal	ra,80000b8c <log_info>
    80000cda:	a001                	j	80000cda <log_fatal+0x4c>

0000000080000cdc <itoa>:
    80000cdc:	7169                	addi	sp,sp,-304
    80000cde:	f606                	sd	ra,296(sp)
    80000ce0:	f222                	sd	s0,288(sp)
    80000ce2:	1a00                	addi	s0,sp,304
    80000ce4:	eca43c23          	sd	a0,-296(s0)
    80000ce8:	87ae                	mv	a5,a1
    80000cea:	ecf42a23          	sw	a5,-300(s0)
    80000cee:	fe042623          	sw	zero,-20(s0)
    80000cf2:	fe042423          	sw	zero,-24(s0)
    80000cf6:	ed446783          	lwu	a5,-300(s0)
    80000cfa:	ed843703          	ld	a4,-296(s0)
    80000cfe:	02f777b3          	remu	a5,a4,a5
    80000d02:	0007871b          	sext.w	a4,a5
    80000d06:	fec42783          	lw	a5,-20(s0)
    80000d0a:	078a                	slli	a5,a5,0x2
    80000d0c:	ff040693          	addi	a3,s0,-16
    80000d10:	97b6                	add	a5,a5,a3
    80000d12:	eee7ac23          	sw	a4,-264(a5)
    80000d16:	ed446783          	lwu	a5,-300(s0)
    80000d1a:	ed843703          	ld	a4,-296(s0)
    80000d1e:	02f76063          	bltu	a4,a5,80000d3e <itoa+0x62>
    80000d22:	ed446783          	lwu	a5,-300(s0)
    80000d26:	ed843703          	ld	a4,-296(s0)
    80000d2a:	02f757b3          	divu	a5,a4,a5
    80000d2e:	ecf43c23          	sd	a5,-296(s0)
    80000d32:	fec42783          	lw	a5,-20(s0)
    80000d36:	2785                	addiw	a5,a5,1
    80000d38:	fef42623          	sw	a5,-20(s0)
    80000d3c:	bf6d                	j	80000cf6 <itoa+0x1a>
    80000d3e:	0001                	nop
    80000d40:	fec42783          	lw	a5,-20(s0)
    80000d44:	2785                	addiw	a5,a5,1
    80000d46:	fef42623          	sw	a5,-20(s0)
    80000d4a:	a0b1                	j	80000d96 <itoa+0xba>
    80000d4c:	fec42783          	lw	a5,-20(s0)
    80000d50:	078a                	slli	a5,a5,0x2
    80000d52:	ff040713          	addi	a4,s0,-16
    80000d56:	97ba                	add	a5,a5,a4
    80000d58:	ef87a783          	lw	a5,-264(a5)
    80000d5c:	873e                	mv	a4,a5
    80000d5e:	47a5                	li	a5,9
    80000d60:	00e7f763          	bgeu	a5,a4,80000d6e <itoa+0x92>
    80000d64:	05700793          	li	a5,87
    80000d68:	fef42423          	sw	a5,-24(s0)
    80000d6c:	a029                	j	80000d76 <itoa+0x9a>
    80000d6e:	03000793          	li	a5,48
    80000d72:	fef42423          	sw	a5,-24(s0)
    80000d76:	fec42783          	lw	a5,-20(s0)
    80000d7a:	078a                	slli	a5,a5,0x2
    80000d7c:	ff040713          	addi	a4,s0,-16
    80000d80:	97ba                	add	a5,a5,a4
    80000d82:	ef87a783          	lw	a5,-264(a5)
    80000d86:	fe842703          	lw	a4,-24(s0)
    80000d8a:	9fb9                	addw	a5,a5,a4
    80000d8c:	2781                	sext.w	a5,a5
    80000d8e:	2781                	sext.w	a5,a5
    80000d90:	853e                	mv	a0,a5
    80000d92:	4a6000ef          	jal	ra,80001238 <putchar>
    80000d96:	fec42783          	lw	a5,-20(s0)
    80000d9a:	fff7871b          	addiw	a4,a5,-1
    80000d9e:	fee42623          	sw	a4,-20(s0)
    80000da2:	faf045e3          	bgtz	a5,80000d4c <itoa+0x70>
    80000da6:	0001                	nop
    80000da8:	0001                	nop
    80000daa:	70b2                	ld	ra,296(sp)
    80000dac:	7412                	ld	s0,288(sp)
    80000dae:	6155                	addi	sp,sp,304
    80000db0:	8082                	ret

0000000080000db2 <_printf_>:
    80000db2:	7119                	addi	sp,sp,-128
    80000db4:	fc86                	sd	ra,120(sp)
    80000db6:	f8a2                	sd	s0,112(sp)
    80000db8:	f4a6                	sd	s1,104(sp)
    80000dba:	f0ca                	sd	s2,96(sp)
    80000dbc:	0100                	addi	s0,sp,128
    80000dbe:	f8a43423          	sd	a0,-120(s0)
    80000dc2:	f8b43023          	sd	a1,-128(s0)
    80000dc6:	00000793          	li	a5,0
    80000dca:	fcf42423          	sw	a5,-56(s0)
    80000dce:	f8043c23          	sd	zero,-104(s0)
    80000dd2:	fa043023          	sd	zero,-96(s0)
    80000dd6:	fa043423          	sd	zero,-88(s0)
    80000dda:	fa042823          	sw	zero,-80(s0)
    80000dde:	fa041a23          	sh	zero,-76(s0)
    80000de2:	a819                	j	80000df8 <_printf_+0x46>
    80000de4:	36048a63          	beqz	s1,80001158 <_printf_+0x3a6>
    80000de8:	8526                	mv	a0,s1
    80000dea:	44e000ef          	jal	ra,80001238 <putchar>
    80000dee:	f8843783          	ld	a5,-120(s0)
    80000df2:	0785                	addi	a5,a5,1
    80000df4:	f8f43423          	sd	a5,-120(s0)
    80000df8:	f8843783          	ld	a5,-120(s0)
    80000dfc:	0007c783          	lbu	a5,0(a5)
    80000e00:	0007849b          	sext.w	s1,a5
    80000e04:	8726                	mv	a4,s1
    80000e06:	02500793          	li	a5,37
    80000e0a:	fcf71de3          	bne	a4,a5,80000de4 <_printf_+0x32>
    80000e0e:	f8843783          	ld	a5,-120(s0)
    80000e12:	0785                	addi	a5,a5,1
    80000e14:	f8f43423          	sd	a5,-120(s0)
    80000e18:	f8843783          	ld	a5,-120(s0)
    80000e1c:	fcf43023          	sd	a5,-64(s0)
    80000e20:	fc042a23          	sw	zero,-44(s0)
    80000e24:	fc042623          	sw	zero,-52(s0)
    80000e28:	f8843783          	ld	a5,-120(s0)
    80000e2c:	00178713          	addi	a4,a5,1
    80000e30:	f8e43423          	sd	a4,-120(s0)
    80000e34:	0007c783          	lbu	a5,0(a5)
    80000e38:	0007849b          	sext.w	s1,a5
    80000e3c:	8726                	mv	a4,s1
    80000e3e:	02500793          	li	a5,37
    80000e42:	2ef70563          	beq	a4,a5,8000112c <_printf_+0x37a>
    80000e46:	8726                	mv	a4,s1
    80000e48:	02500793          	li	a5,37
    80000e4c:	2ef74463          	blt	a4,a5,80001134 <_printf_+0x382>
    80000e50:	8726                	mv	a4,s1
    80000e52:	07800793          	li	a5,120
    80000e56:	2ce7cf63          	blt	a5,a4,80001134 <_printf_+0x382>
    80000e5a:	8726                	mv	a4,s1
    80000e5c:	06300793          	li	a5,99
    80000e60:	2cf74a63          	blt	a4,a5,80001134 <_printf_+0x382>
    80000e64:	f9d4869b          	addiw	a3,s1,-99
    80000e68:	0006871b          	sext.w	a4,a3
    80000e6c:	47d5                	li	a5,21
    80000e6e:	2ce7e363          	bltu	a5,a4,80001134 <_printf_+0x382>
    80000e72:	02069793          	slli	a5,a3,0x20
    80000e76:	9381                	srli	a5,a5,0x20
    80000e78:	00279713          	slli	a4,a5,0x2
    80000e7c:	00003797          	auipc	a5,0x3
    80000e80:	71c78793          	addi	a5,a5,1820 # 80004598 <__rodata_start+0x348>
    80000e84:	97ba                	add	a5,a5,a4
    80000e86:	439c                	lw	a5,0(a5)
    80000e88:	0007871b          	sext.w	a4,a5
    80000e8c:	00003797          	auipc	a5,0x3
    80000e90:	70c78793          	addi	a5,a5,1804 # 80004598 <__rodata_start+0x348>
    80000e94:	97ba                	add	a5,a5,a4
    80000e96:	8782                	jr	a5
    80000e98:	fd442783          	lw	a5,-44(s0)
    80000e9c:	2785                	addiw	a5,a5,1
    80000e9e:	fcf42a23          	sw	a5,-44(s0)
    80000ea2:	4785                	li	a5,1
    80000ea4:	fcf42623          	sw	a5,-52(s0)
    80000ea8:	ac79                	j	80001146 <_printf_+0x394>
    80000eaa:	f8043783          	ld	a5,-128(s0)
    80000eae:	00878713          	addi	a4,a5,8
    80000eb2:	f8e43023          	sd	a4,-128(s0)
    80000eb6:	439c                	lw	a5,0(a5)
    80000eb8:	853e                	mv	a0,a5
    80000eba:	37e000ef          	jal	ra,80001238 <putchar>
    80000ebe:	a461                	j	80001146 <_printf_+0x394>
    80000ec0:	f8043783          	ld	a5,-128(s0)
    80000ec4:	00878713          	addi	a4,a5,8
    80000ec8:	f8e43023          	sd	a4,-128(s0)
    80000ecc:	0007b903          	ld	s2,0(a5)
    80000ed0:	00091b63          	bnez	s2,80000ee6 <_printf_+0x134>
    80000ed4:	00003917          	auipc	s2,0x3
    80000ed8:	6bc90913          	addi	s2,s2,1724 # 80004590 <__rodata_start+0x340>
    80000edc:	a029                	j	80000ee6 <_printf_+0x134>
    80000ede:	8526                	mv	a0,s1
    80000ee0:	358000ef          	jal	ra,80001238 <putchar>
    80000ee4:	0905                	addi	s2,s2,1
    80000ee6:	00094783          	lbu	a5,0(s2)
    80000eea:	0007849b          	sext.w	s1,a5
    80000eee:	f8e5                	bnez	s1,80000ede <_printf_+0x12c>
    80000ef0:	ac99                	j	80001146 <_printf_+0x394>
    80000ef2:	47a9                	li	a5,10
    80000ef4:	faf42e23          	sw	a5,-68(s0)
    80000ef8:	fd442783          	lw	a5,-44(s0)
    80000efc:	0007871b          	sext.w	a4,a5
    80000f00:	4785                	li	a5,1
    80000f02:	00e7dc63          	bge	a5,a4,80000f1a <_printf_+0x168>
    80000f06:	f8043783          	ld	a5,-128(s0)
    80000f0a:	00878713          	addi	a4,a5,8
    80000f0e:	f8e43023          	sd	a4,-128(s0)
    80000f12:	639c                	ld	a5,0(a5)
    80000f14:	fcf43c23          	sd	a5,-40(s0)
    80000f18:	a81d                	j	80000f4e <_printf_+0x19c>
    80000f1a:	fd442783          	lw	a5,-44(s0)
    80000f1e:	0007871b          	sext.w	a4,a5
    80000f22:	4785                	li	a5,1
    80000f24:	00f71c63          	bne	a4,a5,80000f3c <_printf_+0x18a>
    80000f28:	f8043783          	ld	a5,-128(s0)
    80000f2c:	00878713          	addi	a4,a5,8
    80000f30:	f8e43023          	sd	a4,-128(s0)
    80000f34:	639c                	ld	a5,0(a5)
    80000f36:	fcf43c23          	sd	a5,-40(s0)
    80000f3a:	a811                	j	80000f4e <_printf_+0x19c>
    80000f3c:	f8043783          	ld	a5,-128(s0)
    80000f40:	00878713          	addi	a4,a5,8
    80000f44:	f8e43023          	sd	a4,-128(s0)
    80000f48:	439c                	lw	a5,0(a5)
    80000f4a:	fcf43c23          	sd	a5,-40(s0)
    80000f4e:	fd843783          	ld	a5,-40(s0)
    80000f52:	0007dc63          	bgez	a5,80000f6a <_printf_+0x1b8>
    80000f56:	02d00513          	li	a0,45
    80000f5a:	2de000ef          	jal	ra,80001238 <putchar>
    80000f5e:	fd843783          	ld	a5,-40(s0)
    80000f62:	40f007b3          	neg	a5,a5
    80000f66:	fcf43c23          	sd	a5,-40(s0)
    80000f6a:	fbc42783          	lw	a5,-68(s0)
    80000f6e:	85be                	mv	a1,a5
    80000f70:	fd843503          	ld	a0,-40(s0)
    80000f74:	d69ff0ef          	jal	ra,80000cdc <itoa>
    80000f78:	a2f9                	j	80001146 <_printf_+0x394>
    80000f7a:	f8043783          	ld	a5,-128(s0)
    80000f7e:	00878713          	addi	a4,a5,8
    80000f82:	f8e43023          	sd	a4,-128(s0)
    80000f86:	639c                	ld	a5,0(a5)
    80000f88:	853e                	mv	a0,a5
    80000f8a:	1bd020ef          	jal	ra,80003946 <__truncdfsf2>
    80000f8e:	87aa                	mv	a5,a0
    80000f90:	fcf42423          	sw	a5,-56(s0)
    80000f94:	f9840793          	addi	a5,s0,-104
    80000f98:	4619                	li	a2,6
    80000f9a:	85be                	mv	a1,a5
    80000f9c:	fc842503          	lw	a0,-56(s0)
    80000fa0:	ff4ff0ef          	jal	ra,80000794 <ftoa>
    80000fa4:	fc042823          	sw	zero,-48(s0)
    80000fa8:	a805                	j	80000fd8 <_printf_+0x226>
    80000faa:	fd042783          	lw	a5,-48(s0)
    80000fae:	fe040713          	addi	a4,s0,-32
    80000fb2:	97ba                	add	a5,a5,a4
    80000fb4:	fb87c783          	lbu	a5,-72(a5)
    80000fb8:	2781                	sext.w	a5,a5
    80000fba:	853e                	mv	a0,a5
    80000fbc:	27c000ef          	jal	ra,80001238 <putchar>
    80000fc0:	fd042783          	lw	a5,-48(s0)
    80000fc4:	0007871b          	sext.w	a4,a5
    80000fc8:	47f5                	li	a5,29
    80000fca:	02e7c063          	blt	a5,a4,80000fea <_printf_+0x238>
    80000fce:	fd042783          	lw	a5,-48(s0)
    80000fd2:	2785                	addiw	a5,a5,1
    80000fd4:	fcf42823          	sw	a5,-48(s0)
    80000fd8:	fd042783          	lw	a5,-48(s0)
    80000fdc:	fe040713          	addi	a4,s0,-32
    80000fe0:	97ba                	add	a5,a5,a4
    80000fe2:	fb87c783          	lbu	a5,-72(a5)
    80000fe6:	f3f1                	bnez	a5,80000faa <_printf_+0x1f8>
    80000fe8:	aab9                	j	80001146 <_printf_+0x394>
    80000fea:	0001                	nop
    80000fec:	aaa9                	j	80001146 <_printf_+0x394>
    80000fee:	47a9                	li	a5,10
    80000ff0:	faf42e23          	sw	a5,-68(s0)
    80000ff4:	fd442783          	lw	a5,-44(s0)
    80000ff8:	0007871b          	sext.w	a4,a5
    80000ffc:	4785                	li	a5,1
    80000ffe:	00e7dc63          	bge	a5,a4,80001016 <_printf_+0x264>
    80001002:	f8043783          	ld	a5,-128(s0)
    80001006:	00878713          	addi	a4,a5,8
    8000100a:	f8e43023          	sd	a4,-128(s0)
    8000100e:	639c                	ld	a5,0(a5)
    80001010:	fcf43c23          	sd	a5,-40(s0)
    80001014:	a815                	j	80001048 <_printf_+0x296>
    80001016:	fd442783          	lw	a5,-44(s0)
    8000101a:	2781                	sext.w	a5,a5
    8000101c:	cb99                	beqz	a5,80001032 <_printf_+0x280>
    8000101e:	f8043783          	ld	a5,-128(s0)
    80001022:	00878713          	addi	a4,a5,8
    80001026:	f8e43023          	sd	a4,-128(s0)
    8000102a:	639c                	ld	a5,0(a5)
    8000102c:	fcf43c23          	sd	a5,-40(s0)
    80001030:	a821                	j	80001048 <_printf_+0x296>
    80001032:	f8043783          	ld	a5,-128(s0)
    80001036:	00878713          	addi	a4,a5,8
    8000103a:	f8e43023          	sd	a4,-128(s0)
    8000103e:	439c                	lw	a5,0(a5)
    80001040:	1782                	slli	a5,a5,0x20
    80001042:	9381                	srli	a5,a5,0x20
    80001044:	fcf43c23          	sd	a5,-40(s0)
    80001048:	fbc42783          	lw	a5,-68(s0)
    8000104c:	85be                	mv	a1,a5
    8000104e:	fd843503          	ld	a0,-40(s0)
    80001052:	c8bff0ef          	jal	ra,80000cdc <itoa>
    80001056:	a8c5                	j	80001146 <_printf_+0x394>
    80001058:	47a1                	li	a5,8
    8000105a:	faf42e23          	sw	a5,-68(s0)
    8000105e:	fd442783          	lw	a5,-44(s0)
    80001062:	0007871b          	sext.w	a4,a5
    80001066:	4785                	li	a5,1
    80001068:	00e7dc63          	bge	a5,a4,80001080 <_printf_+0x2ce>
    8000106c:	f8043783          	ld	a5,-128(s0)
    80001070:	00878713          	addi	a4,a5,8
    80001074:	f8e43023          	sd	a4,-128(s0)
    80001078:	639c                	ld	a5,0(a5)
    8000107a:	fcf43c23          	sd	a5,-40(s0)
    8000107e:	a815                	j	800010b2 <_printf_+0x300>
    80001080:	fd442783          	lw	a5,-44(s0)
    80001084:	2781                	sext.w	a5,a5
    80001086:	cb99                	beqz	a5,8000109c <_printf_+0x2ea>
    80001088:	f8043783          	ld	a5,-128(s0)
    8000108c:	00878713          	addi	a4,a5,8
    80001090:	f8e43023          	sd	a4,-128(s0)
    80001094:	639c                	ld	a5,0(a5)
    80001096:	fcf43c23          	sd	a5,-40(s0)
    8000109a:	a821                	j	800010b2 <_printf_+0x300>
    8000109c:	f8043783          	ld	a5,-128(s0)
    800010a0:	00878713          	addi	a4,a5,8
    800010a4:	f8e43023          	sd	a4,-128(s0)
    800010a8:	439c                	lw	a5,0(a5)
    800010aa:	1782                	slli	a5,a5,0x20
    800010ac:	9381                	srli	a5,a5,0x20
    800010ae:	fcf43c23          	sd	a5,-40(s0)
    800010b2:	fbc42783          	lw	a5,-68(s0)
    800010b6:	85be                	mv	a1,a5
    800010b8:	fd843503          	ld	a0,-40(s0)
    800010bc:	c21ff0ef          	jal	ra,80000cdc <itoa>
    800010c0:	a059                	j	80001146 <_printf_+0x394>
    800010c2:	47c1                	li	a5,16
    800010c4:	faf42e23          	sw	a5,-68(s0)
    800010c8:	fd442783          	lw	a5,-44(s0)
    800010cc:	0007871b          	sext.w	a4,a5
    800010d0:	4785                	li	a5,1
    800010d2:	00e7dc63          	bge	a5,a4,800010ea <_printf_+0x338>
    800010d6:	f8043783          	ld	a5,-128(s0)
    800010da:	00878713          	addi	a4,a5,8
    800010de:	f8e43023          	sd	a4,-128(s0)
    800010e2:	639c                	ld	a5,0(a5)
    800010e4:	fcf43c23          	sd	a5,-40(s0)
    800010e8:	a815                	j	8000111c <_printf_+0x36a>
    800010ea:	fd442783          	lw	a5,-44(s0)
    800010ee:	2781                	sext.w	a5,a5
    800010f0:	cb99                	beqz	a5,80001106 <_printf_+0x354>
    800010f2:	f8043783          	ld	a5,-128(s0)
    800010f6:	00878713          	addi	a4,a5,8
    800010fa:	f8e43023          	sd	a4,-128(s0)
    800010fe:	639c                	ld	a5,0(a5)
    80001100:	fcf43c23          	sd	a5,-40(s0)
    80001104:	a821                	j	8000111c <_printf_+0x36a>
    80001106:	f8043783          	ld	a5,-128(s0)
    8000110a:	00878713          	addi	a4,a5,8
    8000110e:	f8e43023          	sd	a4,-128(s0)
    80001112:	439c                	lw	a5,0(a5)
    80001114:	1782                	slli	a5,a5,0x20
    80001116:	9381                	srli	a5,a5,0x20
    80001118:	fcf43c23          	sd	a5,-40(s0)
    8000111c:	fbc42783          	lw	a5,-68(s0)
    80001120:	85be                	mv	a1,a5
    80001122:	fd843503          	ld	a0,-40(s0)
    80001126:	bb7ff0ef          	jal	ra,80000cdc <itoa>
    8000112a:	a831                	j	80001146 <_printf_+0x394>
    8000112c:	8526                	mv	a0,s1
    8000112e:	10a000ef          	jal	ra,80001238 <putchar>
    80001132:	a811                	j	80001146 <_printf_+0x394>
    80001134:	02500513          	li	a0,37
    80001138:	100000ef          	jal	ra,80001238 <putchar>
    8000113c:	fc043783          	ld	a5,-64(s0)
    80001140:	f8f43423          	sd	a5,-120(s0)
    80001144:	0001                	nop
    80001146:	fcc42783          	lw	a5,-52(s0)
    8000114a:	2781                	sext.w	a5,a5
    8000114c:	c781                	beqz	a5,80001154 <_printf_+0x3a2>
    8000114e:	fc042623          	sw	zero,-52(s0)
    80001152:	b9d9                	j	80000e28 <_printf_+0x76>
    80001154:	0001                	nop
    80001156:	b14d                	j	80000df8 <_printf_+0x46>
    80001158:	0001                	nop
    8000115a:	70e6                	ld	ra,120(sp)
    8000115c:	7446                	ld	s0,112(sp)
    8000115e:	74a6                	ld	s1,104(sp)
    80001160:	7906                	ld	s2,96(sp)
    80001162:	6109                	addi	sp,sp,128
    80001164:	8082                	ret

0000000080001166 <printf>:
    80001166:	7159                	addi	sp,sp,-112
    80001168:	f406                	sd	ra,40(sp)
    8000116a:	f022                	sd	s0,32(sp)
    8000116c:	1800                	addi	s0,sp,48
    8000116e:	fca43c23          	sd	a0,-40(s0)
    80001172:	e40c                	sd	a1,8(s0)
    80001174:	e810                	sd	a2,16(s0)
    80001176:	ec14                	sd	a3,24(s0)
    80001178:	f018                	sd	a4,32(s0)
    8000117a:	f41c                	sd	a5,40(s0)
    8000117c:	03043823          	sd	a6,48(s0)
    80001180:	03143c23          	sd	a7,56(s0)
    80001184:	04040793          	addi	a5,s0,64
    80001188:	fcf43823          	sd	a5,-48(s0)
    8000118c:	fd043783          	ld	a5,-48(s0)
    80001190:	fc878793          	addi	a5,a5,-56
    80001194:	fef43423          	sd	a5,-24(s0)
    80001198:	fe843783          	ld	a5,-24(s0)
    8000119c:	85be                	mv	a1,a5
    8000119e:	fd843503          	ld	a0,-40(s0)
    800011a2:	c11ff0ef          	jal	ra,80000db2 <_printf_>
    800011a6:	4781                	li	a5,0
    800011a8:	853e                	mv	a0,a5
    800011aa:	70a2                	ld	ra,40(sp)
    800011ac:	7402                	ld	s0,32(sp)
    800011ae:	6165                	addi	sp,sp,112
    800011b0:	8082                	ret

00000000800011b2 <uart_init>:
    800011b2:	1101                	addi	sp,sp,-32
    800011b4:	ec22                	sd	s0,24(sp)
    800011b6:	1000                	addi	s0,sp,32
    800011b8:	fe042623          	sw	zero,-20(s0)
    800011bc:	a805                	j	800011ec <uart_init+0x3a>
    800011be:	fec42783          	lw	a5,-20(s0)
    800011c2:	1137879b          	addiw	a5,a5,275
    800011c6:	2781                	sext.w	a5,a5
    800011c8:	0087979b          	slliw	a5,a5,0x8
    800011cc:	2781                	sext.w	a5,a5
    800011ce:	86be                	mv	a3,a5
    800011d0:	0000c717          	auipc	a4,0xc
    800011d4:	91870713          	addi	a4,a4,-1768 # 8000cae8 <uart_instance>
    800011d8:	fec42783          	lw	a5,-20(s0)
    800011dc:	078e                	slli	a5,a5,0x3
    800011de:	97ba                	add	a5,a5,a4
    800011e0:	e394                	sd	a3,0(a5)
    800011e2:	fec42783          	lw	a5,-20(s0)
    800011e6:	2785                	addiw	a5,a5,1
    800011e8:	fef42623          	sw	a5,-20(s0)
    800011ec:	fec42783          	lw	a5,-20(s0)
    800011f0:	0007871b          	sext.w	a4,a5
    800011f4:	4789                	li	a5,2
    800011f6:	fce7d4e3          	bge	a5,a4,800011be <uart_init+0xc>
    800011fa:	0001                	nop
    800011fc:	0001                	nop
    800011fe:	6462                	ld	s0,24(sp)
    80001200:	6105                	addi	sp,sp,32
    80001202:	8082                	ret

0000000080001204 <getchar>:
    80001204:	1141                	addi	sp,sp,-16
    80001206:	e422                	sd	s0,8(sp)
    80001208:	0800                	addi	s0,sp,16
    8000120a:	0001                	nop
    8000120c:	0000c797          	auipc	a5,0xc
    80001210:	8dc78793          	addi	a5,a5,-1828 # 8000cae8 <uart_instance>
    80001214:	639c                	ld	a5,0(a5)
    80001216:	00c7c783          	lbu	a5,12(a5)
    8000121a:	2781                	sext.w	a5,a5
    8000121c:	8b91                	andi	a5,a5,4
    8000121e:	2781                	sext.w	a5,a5
    80001220:	d7f5                	beqz	a5,8000120c <getchar+0x8>
    80001222:	0000c797          	auipc	a5,0xc
    80001226:	8c678793          	addi	a5,a5,-1850 # 8000cae8 <uart_instance>
    8000122a:	639c                	ld	a5,0(a5)
    8000122c:	479c                	lw	a5,8(a5)
    8000122e:	2781                	sext.w	a5,a5
    80001230:	853e                	mv	a0,a5
    80001232:	6422                	ld	s0,8(sp)
    80001234:	0141                	addi	sp,sp,16
    80001236:	8082                	ret

0000000080001238 <putchar>:
    80001238:	1101                	addi	sp,sp,-32
    8000123a:	ec22                	sd	s0,24(sp)
    8000123c:	1000                	addi	s0,sp,32
    8000123e:	87aa                	mv	a5,a0
    80001240:	fef42623          	sw	a5,-20(s0)
    80001244:	0001                	nop
    80001246:	0000c797          	auipc	a5,0xc
    8000124a:	8a278793          	addi	a5,a5,-1886 # 8000cae8 <uart_instance>
    8000124e:	639c                	ld	a5,0(a5)
    80001250:	00c7c783          	lbu	a5,12(a5)
    80001254:	2781                	sext.w	a5,a5
    80001256:	8b89                	andi	a5,a5,2
    80001258:	2781                	sext.w	a5,a5
    8000125a:	f7f5                	bnez	a5,80001246 <putchar+0xe>
    8000125c:	0000c797          	auipc	a5,0xc
    80001260:	88c78793          	addi	a5,a5,-1908 # 8000cae8 <uart_instance>
    80001264:	639c                	ld	a5,0(a5)
    80001266:	fec42703          	lw	a4,-20(s0)
    8000126a:	c3d8                	sw	a4,4(a5)
    8000126c:	4781                	li	a5,0
    8000126e:	853e                	mv	a0,a5
    80001270:	6462                	ld	s0,24(sp)
    80001272:	6105                	addi	sp,sp,32
    80001274:	8082                	ret

0000000080001276 <set_baud_rate>:
    80001276:	7179                	addi	sp,sp,-48
    80001278:	f422                	sd	s0,40(sp)
    8000127a:	1800                	addi	s0,sp,48
    8000127c:	fca43c23          	sd	a0,-40(s0)
    80001280:	87ae                	mv	a5,a1
    80001282:	fcf42a23          	sw	a5,-44(s0)
    80001286:	fe042623          	sw	zero,-20(s0)
    8000128a:	fd442783          	lw	a5,-44(s0)
    8000128e:	0047979b          	slliw	a5,a5,0x4
    80001292:	2781                	sext.w	a5,a5
    80001294:	02faf737          	lui	a4,0x2faf
    80001298:	0807071b          	addiw	a4,a4,128
    8000129c:	02f757bb          	divuw	a5,a4,a5
    800012a0:	fef42623          	sw	a5,-20(s0)
    800012a4:	fec42783          	lw	a5,-20(s0)
    800012a8:	03079713          	slli	a4,a5,0x30
    800012ac:	9341                	srli	a4,a4,0x30
    800012ae:	fd843783          	ld	a5,-40(s0)
    800012b2:	00e79023          	sh	a4,0(a5)
    800012b6:	0001                	nop
    800012b8:	7422                	ld	s0,40(sp)
    800012ba:	6145                	addi	sp,sp,48
    800012bc:	8082                	ret

00000000800012be <enable_uart_interrupts>:
    800012be:	1101                	addi	sp,sp,-32
    800012c0:	ec22                	sd	s0,24(sp)
    800012c2:	1000                	addi	s0,sp,32
    800012c4:	fea43423          	sd	a0,-24(s0)
    800012c8:	87ae                	mv	a5,a1
    800012ca:	fef403a3          	sb	a5,-25(s0)
    800012ce:	fe843783          	ld	a5,-24(s0)
    800012d2:	fe744703          	lbu	a4,-25(s0)
    800012d6:	00e78c23          	sb	a4,24(a5)
    800012da:	0001                	nop
    800012dc:	6462                	ld	s0,24(sp)
    800012de:	6105                	addi	sp,sp,32
    800012e0:	8082                	ret

00000000800012e2 <write_uart_character>:
    800012e2:	1101                	addi	sp,sp,-32
    800012e4:	ec22                	sd	s0,24(sp)
    800012e6:	1000                	addi	s0,sp,32
    800012e8:	fea43423          	sd	a0,-24(s0)
    800012ec:	87ae                	mv	a5,a1
    800012ee:	fef403a3          	sb	a5,-25(s0)
    800012f2:	0001                	nop
    800012f4:	fe843783          	ld	a5,-24(s0)
    800012f8:	00c7c783          	lbu	a5,12(a5)
    800012fc:	2781                	sext.w	a5,a5
    800012fe:	8b89                	andi	a5,a5,2
    80001300:	2781                	sext.w	a5,a5
    80001302:	fbed                	bnez	a5,800012f4 <write_uart_character+0x12>
    80001304:	fe744783          	lbu	a5,-25(s0)
    80001308:	0007871b          	sext.w	a4,a5
    8000130c:	fe843783          	ld	a5,-24(s0)
    80001310:	c3d8                	sw	a4,4(a5)
    80001312:	4781                	li	a5,0
    80001314:	853e                	mv	a0,a5
    80001316:	6462                	ld	s0,24(sp)
    80001318:	6105                	addi	sp,sp,32
    8000131a:	8082                	ret

000000008000131c <write_uart_string>:
    8000131c:	7179                	addi	sp,sp,-48
    8000131e:	f406                	sd	ra,40(sp)
    80001320:	f022                	sd	s0,32(sp)
    80001322:	1800                	addi	s0,sp,48
    80001324:	fca43c23          	sd	a0,-40(s0)
    80001328:	fcb43823          	sd	a1,-48(s0)
    8000132c:	fe042623          	sw	zero,-20(s0)
    80001330:	fec42783          	lw	a5,-20(s0)
    80001334:	0017871b          	addiw	a4,a5,1
    80001338:	fee42623          	sw	a4,-20(s0)
    8000133c:	1782                	slli	a5,a5,0x20
    8000133e:	9381                	srli	a5,a5,0x20
    80001340:	fd043703          	ld	a4,-48(s0)
    80001344:	97ba                	add	a5,a5,a4
    80001346:	0007c783          	lbu	a5,0(a5)
    8000134a:	fef405a3          	sb	a5,-21(s0)
    8000134e:	feb44783          	lbu	a5,-21(s0)
    80001352:	85be                	mv	a1,a5
    80001354:	fd843503          	ld	a0,-40(s0)
    80001358:	f8bff0ef          	jal	ra,800012e2 <write_uart_character>
    8000135c:	feb44783          	lbu	a5,-21(s0)
    80001360:	0ff7f793          	andi	a5,a5,255
    80001364:	f7f1                	bnez	a5,80001330 <write_uart_string+0x14>
    80001366:	4781                	li	a5,0
    80001368:	853e                	mv	a0,a5
    8000136a:	70a2                	ld	ra,40(sp)
    8000136c:	7402                	ld	s0,32(sp)
    8000136e:	6145                	addi	sp,sp,48
    80001370:	8082                	ret

0000000080001372 <read_uart_character>:
    80001372:	7179                	addi	sp,sp,-48
    80001374:	f422                	sd	s0,40(sp)
    80001376:	1800                	addi	s0,sp,48
    80001378:	fca43c23          	sd	a0,-40(s0)
    8000137c:	fcb43823          	sd	a1,-48(s0)
    80001380:	fe0407a3          	sb	zero,-17(s0)
    80001384:	0001                	nop
    80001386:	fd843783          	ld	a5,-40(s0)
    8000138a:	00c7c783          	lbu	a5,12(a5)
    8000138e:	2781                	sext.w	a5,a5
    80001390:	8b91                	andi	a5,a5,4
    80001392:	2781                	sext.w	a5,a5
    80001394:	dbed                	beqz	a5,80001386 <read_uart_character+0x14>
    80001396:	fd843783          	ld	a5,-40(s0)
    8000139a:	479c                	lw	a5,8(a5)
    8000139c:	fef407a3          	sb	a5,-17(s0)
    800013a0:	fd043783          	ld	a5,-48(s0)
    800013a4:	fef44703          	lbu	a4,-17(s0)
    800013a8:	00e78023          	sb	a4,0(a5)
    800013ac:	4785                	li	a5,1
    800013ae:	853e                	mv	a0,a5
    800013b0:	7422                	ld	s0,40(sp)
    800013b2:	6145                	addi	sp,sp,48
    800013b4:	8082                	ret

00000000800013b6 <read_uart_string>:
    800013b6:	7179                	addi	sp,sp,-48
    800013b8:	f406                	sd	ra,40(sp)
    800013ba:	f022                	sd	s0,32(sp)
    800013bc:	1800                	addi	s0,sp,48
    800013be:	fca43c23          	sd	a0,-40(s0)
    800013c2:	fcb43823          	sd	a1,-48(s0)
    800013c6:	fe042623          	sw	zero,-20(s0)
    800013ca:	fe0405a3          	sb	zero,-21(s0)
    800013ce:	0001                	nop
    800013d0:	fd843783          	ld	a5,-40(s0)
    800013d4:	00c7c783          	lbu	a5,12(a5)
    800013d8:	2781                	sext.w	a5,a5
    800013da:	8b91                	andi	a5,a5,4
    800013dc:	2781                	sext.w	a5,a5
    800013de:	dbed                	beqz	a5,800013d0 <read_uart_string+0x1a>
    800013e0:	fd843783          	ld	a5,-40(s0)
    800013e4:	479c                	lw	a5,8(a5)
    800013e6:	fef405a3          	sb	a5,-21(s0)
    800013ea:	fec42783          	lw	a5,-20(s0)
    800013ee:	0017871b          	addiw	a4,a5,1
    800013f2:	fee42623          	sw	a4,-20(s0)
    800013f6:	1782                	slli	a5,a5,0x20
    800013f8:	9381                	srli	a5,a5,0x20
    800013fa:	fd043703          	ld	a4,-48(s0)
    800013fe:	97ba                	add	a5,a5,a4
    80001400:	feb44703          	lbu	a4,-21(s0)
    80001404:	00e78023          	sb	a4,0(a5)
    80001408:	feb44783          	lbu	a5,-21(s0)
    8000140c:	2781                	sext.w	a5,a5
    8000140e:	853e                	mv	a0,a5
    80001410:	e29ff0ef          	jal	ra,80001238 <putchar>
    80001414:	feb44783          	lbu	a5,-21(s0)
    80001418:	0ff7f713          	andi	a4,a5,255
    8000141c:	47b5                	li	a5,13
    8000141e:	faf718e3          	bne	a4,a5,800013ce <read_uart_string+0x18>
    80001422:	fec42783          	lw	a5,-20(s0)
    80001426:	0017871b          	addiw	a4,a5,1
    8000142a:	fee42623          	sw	a4,-20(s0)
    8000142e:	1782                	slli	a5,a5,0x20
    80001430:	9381                	srli	a5,a5,0x20
    80001432:	fd043703          	ld	a4,-48(s0)
    80001436:	97ba                	add	a5,a5,a4
    80001438:	4729                	li	a4,10
    8000143a:	00e78023          	sb	a4,0(a5)
    8000143e:	fec42783          	lw	a5,-20(s0)
    80001442:	0017871b          	addiw	a4,a5,1
    80001446:	fee42623          	sw	a4,-20(s0)
    8000144a:	1782                	slli	a5,a5,0x20
    8000144c:	9381                	srli	a5,a5,0x20
    8000144e:	fd043703          	ld	a4,-48(s0)
    80001452:	97ba                	add	a5,a5,a4
    80001454:	00078023          	sb	zero,0(a5)
    80001458:	fec42783          	lw	a5,-20(s0)
    8000145c:	0ff7f793          	andi	a5,a5,255
    80001460:	853e                	mv	a0,a5
    80001462:	70a2                	ld	ra,40(sp)
    80001464:	7402                	ld	s0,32(sp)
    80001466:	6145                	addi	sp,sp,48
    80001468:	8082                	ret

000000008000146a <flush_uart>:
    8000146a:	7179                	addi	sp,sp,-48
    8000146c:	f422                	sd	s0,40(sp)
    8000146e:	1800                	addi	s0,sp,48
    80001470:	fca43c23          	sd	a0,-40(s0)
    80001474:	a031                	j	80001480 <flush_uart+0x16>
    80001476:	fd843783          	ld	a5,-40(s0)
    8000147a:	479c                	lw	a5,8(a5)
    8000147c:	fef407a3          	sb	a5,-17(s0)
    80001480:	fd843783          	ld	a5,-40(s0)
    80001484:	00c7c783          	lbu	a5,12(a5)
    80001488:	2781                	sext.w	a5,a5
    8000148a:	8b91                	andi	a5,a5,4
    8000148c:	2781                	sext.w	a5,a5
    8000148e:	f7e5                	bnez	a5,80001476 <flush_uart+0xc>
    80001490:	0001                	nop
    80001492:	0001                	nop
    80001494:	7422                	ld	s0,40(sp)
    80001496:	6145                	addi	sp,sp,48
    80001498:	8082                	ret

000000008000149a <uart0_isr>:
    8000149a:	1101                	addi	sp,sp,-32
    8000149c:	ec06                	sd	ra,24(sp)
    8000149e:	e822                	sd	s0,16(sp)
    800014a0:	1000                	addi	s0,sp,32
    800014a2:	fe042623          	sw	zero,-20(s0)
    800014a6:	0000b797          	auipc	a5,0xb
    800014aa:	64278793          	addi	a5,a5,1602 # 8000cae8 <uart_instance>
    800014ae:	639c                	ld	a5,0(a5)
    800014b0:	00c7c783          	lbu	a5,12(a5)
    800014b4:	2781                	sext.w	a5,a5
    800014b6:	1007f793          	andi	a5,a5,256
    800014ba:	2781                	sext.w	a5,a5
    800014bc:	cbbd                	beqz	a5,80001532 <uart0_isr+0x98>
    800014be:	a8b1                	j	8000151a <uart0_isr+0x80>
    800014c0:	0000b797          	auipc	a5,0xb
    800014c4:	62878793          	addi	a5,a5,1576 # 8000cae8 <uart_instance>
    800014c8:	639c                	ld	a5,0(a5)
    800014ca:	479c                	lw	a5,8(a5)
    800014cc:	fef42623          	sw	a5,-20(s0)
    800014d0:	87018793          	addi	a5,gp,-1936 # 800054a0 <uart0_rcv_isr_count>
    800014d4:	439c                	lw	a5,0(a5)
    800014d6:	2781                	sext.w	a5,a5
    800014d8:	0017871b          	addiw	a4,a5,1
    800014dc:	0007069b          	sext.w	a3,a4
    800014e0:	87018713          	addi	a4,gp,-1936 # 800054a0 <uart0_rcv_isr_count>
    800014e4:	c314                	sw	a3,0(a4)
    800014e6:	fec42703          	lw	a4,-20(s0)
    800014ea:	0ff77713          	andi	a4,a4,255
    800014ee:	00004697          	auipc	a3,0x4
    800014f2:	fca68693          	addi	a3,a3,-54 # 800054b8 <u0_rcv_char>
    800014f6:	1782                	slli	a5,a5,0x20
    800014f8:	9381                	srli	a5,a5,0x20
    800014fa:	97b6                	add	a5,a5,a3
    800014fc:	00e78023          	sb	a4,0(a5)
    80001500:	0000b797          	auipc	a5,0xb
    80001504:	5e878793          	addi	a5,a5,1512 # 8000cae8 <uart_instance>
    80001508:	639c                	ld	a5,0(a5)
    8000150a:	fec42703          	lw	a4,-20(s0)
    8000150e:	0ff77713          	andi	a4,a4,255
    80001512:	85ba                	mv	a1,a4
    80001514:	853e                	mv	a0,a5
    80001516:	dcdff0ef          	jal	ra,800012e2 <write_uart_character>
    8000151a:	0000b797          	auipc	a5,0xb
    8000151e:	5ce78793          	addi	a5,a5,1486 # 8000cae8 <uart_instance>
    80001522:	639c                	ld	a5,0(a5)
    80001524:	00c7c783          	lbu	a5,12(a5)
    80001528:	2781                	sext.w	a5,a5
    8000152a:	8b91                	andi	a5,a5,4
    8000152c:	2781                	sext.w	a5,a5
    8000152e:	fbc9                	bnez	a5,800014c0 <uart0_isr+0x26>
    80001530:	a2a1                	j	80001678 <uart0_isr+0x1de>
    80001532:	0000b797          	auipc	a5,0xb
    80001536:	5b678793          	addi	a5,a5,1462 # 8000cae8 <uart_instance>
    8000153a:	639c                	ld	a5,0(a5)
    8000153c:	00c7c783          	lbu	a5,12(a5)
    80001540:	2781                	sext.w	a5,a5
    80001542:	8ba1                	andi	a5,a5,8
    80001544:	2781                	sext.w	a5,a5
    80001546:	c3e9                	beqz	a5,80001608 <uart0_isr+0x16e>
    80001548:	45c1                	li	a1,16
    8000154a:	000407b7          	lui	a5,0x40
    8000154e:	10078513          	addi	a0,a5,256 # 40100 <_tbss_end+0x40100>
    80001552:	c7eff0ef          	jal	ra,800009d0 <write_word>
    80001556:	000407b7          	lui	a5,0x40
    8000155a:	10878513          	addi	a0,a5,264 # 40108 <_tbss_end+0x40108>
    8000155e:	c3aff0ef          	jal	ra,80000998 <read_word>
    80001562:	87aa                	mv	a5,a0
    80001564:	0107e793          	ori	a5,a5,16
    80001568:	85be                	mv	a1,a5
    8000156a:	000407b7          	lui	a5,0x40
    8000156e:	10878513          	addi	a0,a5,264 # 40108 <_tbss_end+0x40108>
    80001572:	c5eff0ef          	jal	ra,800009d0 <write_word>
    80001576:	a8b1                	j	800015d2 <uart0_isr+0x138>
    80001578:	0000b797          	auipc	a5,0xb
    8000157c:	57078793          	addi	a5,a5,1392 # 8000cae8 <uart_instance>
    80001580:	639c                	ld	a5,0(a5)
    80001582:	479c                	lw	a5,8(a5)
    80001584:	fef42623          	sw	a5,-20(s0)
    80001588:	87018793          	addi	a5,gp,-1936 # 800054a0 <uart0_rcv_isr_count>
    8000158c:	439c                	lw	a5,0(a5)
    8000158e:	2781                	sext.w	a5,a5
    80001590:	0017871b          	addiw	a4,a5,1
    80001594:	0007069b          	sext.w	a3,a4
    80001598:	87018713          	addi	a4,gp,-1936 # 800054a0 <uart0_rcv_isr_count>
    8000159c:	c314                	sw	a3,0(a4)
    8000159e:	fec42703          	lw	a4,-20(s0)
    800015a2:	0ff77713          	andi	a4,a4,255
    800015a6:	00004697          	auipc	a3,0x4
    800015aa:	f1268693          	addi	a3,a3,-238 # 800054b8 <u0_rcv_char>
    800015ae:	1782                	slli	a5,a5,0x20
    800015b0:	9381                	srli	a5,a5,0x20
    800015b2:	97b6                	add	a5,a5,a3
    800015b4:	00e78023          	sb	a4,0(a5)
    800015b8:	0000b797          	auipc	a5,0xb
    800015bc:	53078793          	addi	a5,a5,1328 # 8000cae8 <uart_instance>
    800015c0:	639c                	ld	a5,0(a5)
    800015c2:	fec42703          	lw	a4,-20(s0)
    800015c6:	0ff77713          	andi	a4,a4,255
    800015ca:	85ba                	mv	a1,a4
    800015cc:	853e                	mv	a0,a5
    800015ce:	d15ff0ef          	jal	ra,800012e2 <write_uart_character>
    800015d2:	0000b797          	auipc	a5,0xb
    800015d6:	51678793          	addi	a5,a5,1302 # 8000cae8 <uart_instance>
    800015da:	639c                	ld	a5,0(a5)
    800015dc:	00c7c783          	lbu	a5,12(a5)
    800015e0:	2781                	sext.w	a5,a5
    800015e2:	8b91                	andi	a5,a5,4
    800015e4:	2781                	sext.w	a5,a5
    800015e6:	fbc9                	bnez	a5,80001578 <uart0_isr+0xde>
    800015e8:	000407b7          	lui	a5,0x40
    800015ec:	10878513          	addi	a0,a5,264 # 40108 <_tbss_end+0x40108>
    800015f0:	ba8ff0ef          	jal	ra,80000998 <read_word>
    800015f4:	87aa                	mv	a5,a0
    800015f6:	9bbd                	andi	a5,a5,-17
    800015f8:	85be                	mv	a1,a5
    800015fa:	000407b7          	lui	a5,0x40
    800015fe:	10878513          	addi	a0,a5,264 # 40108 <_tbss_end+0x40108>
    80001602:	bceff0ef          	jal	ra,800009d0 <write_word>
    80001606:	a88d                	j	80001678 <uart0_isr+0x1de>
    80001608:	0000b797          	auipc	a5,0xb
    8000160c:	4e078793          	addi	a5,a5,1248 # 8000cae8 <uart_instance>
    80001610:	639c                	ld	a5,0(a5)
    80001612:	00c7c783          	lbu	a5,12(a5)
    80001616:	2781                	sext.w	a5,a5
    80001618:	8b91                	andi	a5,a5,4
    8000161a:	2781                	sext.w	a5,a5
    8000161c:	cfb1                	beqz	a5,80001678 <uart0_isr+0x1de>
    8000161e:	0000b797          	auipc	a5,0xb
    80001622:	4ca78793          	addi	a5,a5,1226 # 8000cae8 <uart_instance>
    80001626:	639c                	ld	a5,0(a5)
    80001628:	479c                	lw	a5,8(a5)
    8000162a:	fef42623          	sw	a5,-20(s0)
    8000162e:	87018793          	addi	a5,gp,-1936 # 800054a0 <uart0_rcv_isr_count>
    80001632:	439c                	lw	a5,0(a5)
    80001634:	2781                	sext.w	a5,a5
    80001636:	0017871b          	addiw	a4,a5,1
    8000163a:	0007069b          	sext.w	a3,a4
    8000163e:	87018713          	addi	a4,gp,-1936 # 800054a0 <uart0_rcv_isr_count>
    80001642:	c314                	sw	a3,0(a4)
    80001644:	fec42703          	lw	a4,-20(s0)
    80001648:	0ff77713          	andi	a4,a4,255
    8000164c:	00004697          	auipc	a3,0x4
    80001650:	e6c68693          	addi	a3,a3,-404 # 800054b8 <u0_rcv_char>
    80001654:	1782                	slli	a5,a5,0x20
    80001656:	9381                	srli	a5,a5,0x20
    80001658:	97b6                	add	a5,a5,a3
    8000165a:	00e78023          	sb	a4,0(a5)
    8000165e:	0000b797          	auipc	a5,0xb
    80001662:	48a78793          	addi	a5,a5,1162 # 8000cae8 <uart_instance>
    80001666:	639c                	ld	a5,0(a5)
    80001668:	fec42703          	lw	a4,-20(s0)
    8000166c:	0ff77713          	andi	a4,a4,255
    80001670:	85ba                	mv	a1,a4
    80001672:	853e                	mv	a0,a5
    80001674:	c6fff0ef          	jal	ra,800012e2 <write_uart_character>
    80001678:	4781                	li	a5,0
    8000167a:	853e                	mv	a0,a5
    8000167c:	60e2                	ld	ra,24(sp)
    8000167e:	6442                	ld	s0,16(sp)
    80001680:	6105                	addi	sp,sp,32
    80001682:	8082                	ret

0000000080001684 <uart1_isr>:
    80001684:	1101                	addi	sp,sp,-32
    80001686:	ec06                	sd	ra,24(sp)
    80001688:	e822                	sd	s0,16(sp)
    8000168a:	1000                	addi	s0,sp,32
    8000168c:	fe042623          	sw	zero,-20(s0)
    80001690:	0000b797          	auipc	a5,0xb
    80001694:	45878793          	addi	a5,a5,1112 # 8000cae8 <uart_instance>
    80001698:	679c                	ld	a5,8(a5)
    8000169a:	00c7c783          	lbu	a5,12(a5)
    8000169e:	2781                	sext.w	a5,a5
    800016a0:	1007f793          	andi	a5,a5,256
    800016a4:	2781                	sext.w	a5,a5
    800016a6:	cbbd                	beqz	a5,8000171c <uart1_isr+0x98>
    800016a8:	a8b1                	j	80001704 <uart1_isr+0x80>
    800016aa:	0000b797          	auipc	a5,0xb
    800016ae:	43e78793          	addi	a5,a5,1086 # 8000cae8 <uart_instance>
    800016b2:	679c                	ld	a5,8(a5)
    800016b4:	479c                	lw	a5,8(a5)
    800016b6:	fef42623          	sw	a5,-20(s0)
    800016ba:	87818793          	addi	a5,gp,-1928 # 800054a8 <uart1_rcv_isr_count>
    800016be:	439c                	lw	a5,0(a5)
    800016c0:	2781                	sext.w	a5,a5
    800016c2:	0017871b          	addiw	a4,a5,1
    800016c6:	0007069b          	sext.w	a3,a4
    800016ca:	87818713          	addi	a4,gp,-1928 # 800054a8 <uart1_rcv_isr_count>
    800016ce:	c314                	sw	a3,0(a4)
    800016d0:	fec42703          	lw	a4,-20(s0)
    800016d4:	0ff77713          	andi	a4,a4,255
    800016d8:	00006697          	auipc	a3,0x6
    800016dc:	4f068693          	addi	a3,a3,1264 # 80007bc8 <u1_rcv_char>
    800016e0:	1782                	slli	a5,a5,0x20
    800016e2:	9381                	srli	a5,a5,0x20
    800016e4:	97b6                	add	a5,a5,a3
    800016e6:	00e78023          	sb	a4,0(a5)
    800016ea:	0000b797          	auipc	a5,0xb
    800016ee:	3fe78793          	addi	a5,a5,1022 # 8000cae8 <uart_instance>
    800016f2:	679c                	ld	a5,8(a5)
    800016f4:	fec42703          	lw	a4,-20(s0)
    800016f8:	0ff77713          	andi	a4,a4,255
    800016fc:	85ba                	mv	a1,a4
    800016fe:	853e                	mv	a0,a5
    80001700:	be3ff0ef          	jal	ra,800012e2 <write_uart_character>
    80001704:	0000b797          	auipc	a5,0xb
    80001708:	3e478793          	addi	a5,a5,996 # 8000cae8 <uart_instance>
    8000170c:	679c                	ld	a5,8(a5)
    8000170e:	00c7c783          	lbu	a5,12(a5)
    80001712:	2781                	sext.w	a5,a5
    80001714:	8b91                	andi	a5,a5,4
    80001716:	2781                	sext.w	a5,a5
    80001718:	fbc9                	bnez	a5,800016aa <uart1_isr+0x26>
    8000171a:	a2a1                	j	80001862 <uart1_isr+0x1de>
    8000171c:	0000b797          	auipc	a5,0xb
    80001720:	3cc78793          	addi	a5,a5,972 # 8000cae8 <uart_instance>
    80001724:	679c                	ld	a5,8(a5)
    80001726:	00c7c783          	lbu	a5,12(a5)
    8000172a:	2781                	sext.w	a5,a5
    8000172c:	8ba1                	andi	a5,a5,8
    8000172e:	2781                	sext.w	a5,a5
    80001730:	c3e9                	beqz	a5,800017f2 <uart1_isr+0x16e>
    80001732:	45c1                	li	a1,16
    80001734:	000407b7          	lui	a5,0x40
    80001738:	10078513          	addi	a0,a5,256 # 40100 <_tbss_end+0x40100>
    8000173c:	a94ff0ef          	jal	ra,800009d0 <write_word>
    80001740:	000407b7          	lui	a5,0x40
    80001744:	10878513          	addi	a0,a5,264 # 40108 <_tbss_end+0x40108>
    80001748:	a50ff0ef          	jal	ra,80000998 <read_word>
    8000174c:	87aa                	mv	a5,a0
    8000174e:	0107e793          	ori	a5,a5,16
    80001752:	85be                	mv	a1,a5
    80001754:	000407b7          	lui	a5,0x40
    80001758:	10878513          	addi	a0,a5,264 # 40108 <_tbss_end+0x40108>
    8000175c:	a74ff0ef          	jal	ra,800009d0 <write_word>
    80001760:	a8b1                	j	800017bc <uart1_isr+0x138>
    80001762:	0000b797          	auipc	a5,0xb
    80001766:	38678793          	addi	a5,a5,902 # 8000cae8 <uart_instance>
    8000176a:	679c                	ld	a5,8(a5)
    8000176c:	479c                	lw	a5,8(a5)
    8000176e:	fef42623          	sw	a5,-20(s0)
    80001772:	87818793          	addi	a5,gp,-1928 # 800054a8 <uart1_rcv_isr_count>
    80001776:	439c                	lw	a5,0(a5)
    80001778:	2781                	sext.w	a5,a5
    8000177a:	0017871b          	addiw	a4,a5,1
    8000177e:	0007069b          	sext.w	a3,a4
    80001782:	87818713          	addi	a4,gp,-1928 # 800054a8 <uart1_rcv_isr_count>
    80001786:	c314                	sw	a3,0(a4)
    80001788:	fec42703          	lw	a4,-20(s0)
    8000178c:	0ff77713          	andi	a4,a4,255
    80001790:	00006697          	auipc	a3,0x6
    80001794:	43868693          	addi	a3,a3,1080 # 80007bc8 <u1_rcv_char>
    80001798:	1782                	slli	a5,a5,0x20
    8000179a:	9381                	srli	a5,a5,0x20
    8000179c:	97b6                	add	a5,a5,a3
    8000179e:	00e78023          	sb	a4,0(a5)
    800017a2:	0000b797          	auipc	a5,0xb
    800017a6:	34678793          	addi	a5,a5,838 # 8000cae8 <uart_instance>
    800017aa:	679c                	ld	a5,8(a5)
    800017ac:	fec42703          	lw	a4,-20(s0)
    800017b0:	0ff77713          	andi	a4,a4,255
    800017b4:	85ba                	mv	a1,a4
    800017b6:	853e                	mv	a0,a5
    800017b8:	b2bff0ef          	jal	ra,800012e2 <write_uart_character>
    800017bc:	0000b797          	auipc	a5,0xb
    800017c0:	32c78793          	addi	a5,a5,812 # 8000cae8 <uart_instance>
    800017c4:	679c                	ld	a5,8(a5)
    800017c6:	00c7c783          	lbu	a5,12(a5)
    800017ca:	2781                	sext.w	a5,a5
    800017cc:	8b91                	andi	a5,a5,4
    800017ce:	2781                	sext.w	a5,a5
    800017d0:	fbc9                	bnez	a5,80001762 <uart1_isr+0xde>
    800017d2:	000407b7          	lui	a5,0x40
    800017d6:	10878513          	addi	a0,a5,264 # 40108 <_tbss_end+0x40108>
    800017da:	9beff0ef          	jal	ra,80000998 <read_word>
    800017de:	87aa                	mv	a5,a0
    800017e0:	9bbd                	andi	a5,a5,-17
    800017e2:	85be                	mv	a1,a5
    800017e4:	000407b7          	lui	a5,0x40
    800017e8:	10878513          	addi	a0,a5,264 # 40108 <_tbss_end+0x40108>
    800017ec:	9e4ff0ef          	jal	ra,800009d0 <write_word>
    800017f0:	a88d                	j	80001862 <uart1_isr+0x1de>
    800017f2:	0000b797          	auipc	a5,0xb
    800017f6:	2f678793          	addi	a5,a5,758 # 8000cae8 <uart_instance>
    800017fa:	679c                	ld	a5,8(a5)
    800017fc:	00c7c783          	lbu	a5,12(a5)
    80001800:	2781                	sext.w	a5,a5
    80001802:	8b91                	andi	a5,a5,4
    80001804:	2781                	sext.w	a5,a5
    80001806:	cfb1                	beqz	a5,80001862 <uart1_isr+0x1de>
    80001808:	0000b797          	auipc	a5,0xb
    8000180c:	2e078793          	addi	a5,a5,736 # 8000cae8 <uart_instance>
    80001810:	679c                	ld	a5,8(a5)
    80001812:	479c                	lw	a5,8(a5)
    80001814:	fef42623          	sw	a5,-20(s0)
    80001818:	87818793          	addi	a5,gp,-1928 # 800054a8 <uart1_rcv_isr_count>
    8000181c:	439c                	lw	a5,0(a5)
    8000181e:	2781                	sext.w	a5,a5
    80001820:	0017871b          	addiw	a4,a5,1
    80001824:	0007069b          	sext.w	a3,a4
    80001828:	87818713          	addi	a4,gp,-1928 # 800054a8 <uart1_rcv_isr_count>
    8000182c:	c314                	sw	a3,0(a4)
    8000182e:	fec42703          	lw	a4,-20(s0)
    80001832:	0ff77713          	andi	a4,a4,255
    80001836:	00006697          	auipc	a3,0x6
    8000183a:	39268693          	addi	a3,a3,914 # 80007bc8 <u1_rcv_char>
    8000183e:	1782                	slli	a5,a5,0x20
    80001840:	9381                	srli	a5,a5,0x20
    80001842:	97b6                	add	a5,a5,a3
    80001844:	00e78023          	sb	a4,0(a5)
    80001848:	0000b797          	auipc	a5,0xb
    8000184c:	2a078793          	addi	a5,a5,672 # 8000cae8 <uart_instance>
    80001850:	679c                	ld	a5,8(a5)
    80001852:	fec42703          	lw	a4,-20(s0)
    80001856:	0ff77713          	andi	a4,a4,255
    8000185a:	85ba                	mv	a1,a4
    8000185c:	853e                	mv	a0,a5
    8000185e:	a85ff0ef          	jal	ra,800012e2 <write_uart_character>
    80001862:	4781                	li	a5,0
    80001864:	853e                	mv	a0,a5
    80001866:	60e2                	ld	ra,24(sp)
    80001868:	6442                	ld	s0,16(sp)
    8000186a:	6105                	addi	sp,sp,32
    8000186c:	8082                	ret

000000008000186e <uart2_isr>:
    8000186e:	1101                	addi	sp,sp,-32
    80001870:	ec06                	sd	ra,24(sp)
    80001872:	e822                	sd	s0,16(sp)
    80001874:	1000                	addi	s0,sp,32
    80001876:	fe042623          	sw	zero,-20(s0)
    8000187a:	0000b797          	auipc	a5,0xb
    8000187e:	26e78793          	addi	a5,a5,622 # 8000cae8 <uart_instance>
    80001882:	6b9c                	ld	a5,16(a5)
    80001884:	00c7c783          	lbu	a5,12(a5)
    80001888:	2781                	sext.w	a5,a5
    8000188a:	1007f793          	andi	a5,a5,256
    8000188e:	2781                	sext.w	a5,a5
    80001890:	cbbd                	beqz	a5,80001906 <uart2_isr+0x98>
    80001892:	a8b1                	j	800018ee <uart2_isr+0x80>
    80001894:	0000b797          	auipc	a5,0xb
    80001898:	25478793          	addi	a5,a5,596 # 8000cae8 <uart_instance>
    8000189c:	6b9c                	ld	a5,16(a5)
    8000189e:	479c                	lw	a5,8(a5)
    800018a0:	fef42623          	sw	a5,-20(s0)
    800018a4:	88018793          	addi	a5,gp,-1920 # 800054b0 <uart2_rcv_isr_count>
    800018a8:	439c                	lw	a5,0(a5)
    800018aa:	2781                	sext.w	a5,a5
    800018ac:	0017871b          	addiw	a4,a5,1
    800018b0:	0007069b          	sext.w	a3,a4
    800018b4:	88018713          	addi	a4,gp,-1920 # 800054b0 <uart2_rcv_isr_count>
    800018b8:	c314                	sw	a3,0(a4)
    800018ba:	fec42703          	lw	a4,-20(s0)
    800018be:	0ff77713          	andi	a4,a4,255
    800018c2:	00009697          	auipc	a3,0x9
    800018c6:	a1668693          	addi	a3,a3,-1514 # 8000a2d8 <u2_rcv_char>
    800018ca:	1782                	slli	a5,a5,0x20
    800018cc:	9381                	srli	a5,a5,0x20
    800018ce:	97b6                	add	a5,a5,a3
    800018d0:	00e78023          	sb	a4,0(a5)
    800018d4:	0000b797          	auipc	a5,0xb
    800018d8:	21478793          	addi	a5,a5,532 # 8000cae8 <uart_instance>
    800018dc:	6b9c                	ld	a5,16(a5)
    800018de:	fec42703          	lw	a4,-20(s0)
    800018e2:	0ff77713          	andi	a4,a4,255
    800018e6:	85ba                	mv	a1,a4
    800018e8:	853e                	mv	a0,a5
    800018ea:	9f9ff0ef          	jal	ra,800012e2 <write_uart_character>
    800018ee:	0000b797          	auipc	a5,0xb
    800018f2:	1fa78793          	addi	a5,a5,506 # 8000cae8 <uart_instance>
    800018f6:	6b9c                	ld	a5,16(a5)
    800018f8:	00c7c783          	lbu	a5,12(a5)
    800018fc:	2781                	sext.w	a5,a5
    800018fe:	8b91                	andi	a5,a5,4
    80001900:	2781                	sext.w	a5,a5
    80001902:	fbc9                	bnez	a5,80001894 <uart2_isr+0x26>
    80001904:	a2a1                	j	80001a4c <uart2_isr+0x1de>
    80001906:	0000b797          	auipc	a5,0xb
    8000190a:	1e278793          	addi	a5,a5,482 # 8000cae8 <uart_instance>
    8000190e:	6b9c                	ld	a5,16(a5)
    80001910:	00c7c783          	lbu	a5,12(a5)
    80001914:	2781                	sext.w	a5,a5
    80001916:	8ba1                	andi	a5,a5,8
    80001918:	2781                	sext.w	a5,a5
    8000191a:	c3e9                	beqz	a5,800019dc <uart2_isr+0x16e>
    8000191c:	45c1                	li	a1,16
    8000191e:	000407b7          	lui	a5,0x40
    80001922:	10078513          	addi	a0,a5,256 # 40100 <_tbss_end+0x40100>
    80001926:	8aaff0ef          	jal	ra,800009d0 <write_word>
    8000192a:	000407b7          	lui	a5,0x40
    8000192e:	10878513          	addi	a0,a5,264 # 40108 <_tbss_end+0x40108>
    80001932:	866ff0ef          	jal	ra,80000998 <read_word>
    80001936:	87aa                	mv	a5,a0
    80001938:	0107e793          	ori	a5,a5,16
    8000193c:	85be                	mv	a1,a5
    8000193e:	000407b7          	lui	a5,0x40
    80001942:	10878513          	addi	a0,a5,264 # 40108 <_tbss_end+0x40108>
    80001946:	88aff0ef          	jal	ra,800009d0 <write_word>
    8000194a:	a8b1                	j	800019a6 <uart2_isr+0x138>
    8000194c:	0000b797          	auipc	a5,0xb
    80001950:	19c78793          	addi	a5,a5,412 # 8000cae8 <uart_instance>
    80001954:	6b9c                	ld	a5,16(a5)
    80001956:	479c                	lw	a5,8(a5)
    80001958:	fef42623          	sw	a5,-20(s0)
    8000195c:	88018793          	addi	a5,gp,-1920 # 800054b0 <uart2_rcv_isr_count>
    80001960:	439c                	lw	a5,0(a5)
    80001962:	2781                	sext.w	a5,a5
    80001964:	0017871b          	addiw	a4,a5,1
    80001968:	0007069b          	sext.w	a3,a4
    8000196c:	88018713          	addi	a4,gp,-1920 # 800054b0 <uart2_rcv_isr_count>
    80001970:	c314                	sw	a3,0(a4)
    80001972:	fec42703          	lw	a4,-20(s0)
    80001976:	0ff77713          	andi	a4,a4,255
    8000197a:	00009697          	auipc	a3,0x9
    8000197e:	95e68693          	addi	a3,a3,-1698 # 8000a2d8 <u2_rcv_char>
    80001982:	1782                	slli	a5,a5,0x20
    80001984:	9381                	srli	a5,a5,0x20
    80001986:	97b6                	add	a5,a5,a3
    80001988:	00e78023          	sb	a4,0(a5)
    8000198c:	0000b797          	auipc	a5,0xb
    80001990:	15c78793          	addi	a5,a5,348 # 8000cae8 <uart_instance>
    80001994:	6b9c                	ld	a5,16(a5)
    80001996:	fec42703          	lw	a4,-20(s0)
    8000199a:	0ff77713          	andi	a4,a4,255
    8000199e:	85ba                	mv	a1,a4
    800019a0:	853e                	mv	a0,a5
    800019a2:	941ff0ef          	jal	ra,800012e2 <write_uart_character>
    800019a6:	0000b797          	auipc	a5,0xb
    800019aa:	14278793          	addi	a5,a5,322 # 8000cae8 <uart_instance>
    800019ae:	6b9c                	ld	a5,16(a5)
    800019b0:	00c7c783          	lbu	a5,12(a5)
    800019b4:	2781                	sext.w	a5,a5
    800019b6:	8b91                	andi	a5,a5,4
    800019b8:	2781                	sext.w	a5,a5
    800019ba:	fbc9                	bnez	a5,8000194c <uart2_isr+0xde>
    800019bc:	000407b7          	lui	a5,0x40
    800019c0:	10878513          	addi	a0,a5,264 # 40108 <_tbss_end+0x40108>
    800019c4:	fd5fe0ef          	jal	ra,80000998 <read_word>
    800019c8:	87aa                	mv	a5,a0
    800019ca:	9bbd                	andi	a5,a5,-17
    800019cc:	85be                	mv	a1,a5
    800019ce:	000407b7          	lui	a5,0x40
    800019d2:	10878513          	addi	a0,a5,264 # 40108 <_tbss_end+0x40108>
    800019d6:	ffbfe0ef          	jal	ra,800009d0 <write_word>
    800019da:	a88d                	j	80001a4c <uart2_isr+0x1de>
    800019dc:	0000b797          	auipc	a5,0xb
    800019e0:	10c78793          	addi	a5,a5,268 # 8000cae8 <uart_instance>
    800019e4:	6b9c                	ld	a5,16(a5)
    800019e6:	00c7c783          	lbu	a5,12(a5)
    800019ea:	2781                	sext.w	a5,a5
    800019ec:	8b91                	andi	a5,a5,4
    800019ee:	2781                	sext.w	a5,a5
    800019f0:	cfb1                	beqz	a5,80001a4c <uart2_isr+0x1de>
    800019f2:	0000b797          	auipc	a5,0xb
    800019f6:	0f678793          	addi	a5,a5,246 # 8000cae8 <uart_instance>
    800019fa:	6b9c                	ld	a5,16(a5)
    800019fc:	479c                	lw	a5,8(a5)
    800019fe:	fef42623          	sw	a5,-20(s0)
    80001a02:	88018793          	addi	a5,gp,-1920 # 800054b0 <uart2_rcv_isr_count>
    80001a06:	439c                	lw	a5,0(a5)
    80001a08:	2781                	sext.w	a5,a5
    80001a0a:	0017871b          	addiw	a4,a5,1
    80001a0e:	0007069b          	sext.w	a3,a4
    80001a12:	88018713          	addi	a4,gp,-1920 # 800054b0 <uart2_rcv_isr_count>
    80001a16:	c314                	sw	a3,0(a4)
    80001a18:	fec42703          	lw	a4,-20(s0)
    80001a1c:	0ff77713          	andi	a4,a4,255
    80001a20:	00009697          	auipc	a3,0x9
    80001a24:	8b868693          	addi	a3,a3,-1864 # 8000a2d8 <u2_rcv_char>
    80001a28:	1782                	slli	a5,a5,0x20
    80001a2a:	9381                	srli	a5,a5,0x20
    80001a2c:	97b6                	add	a5,a5,a3
    80001a2e:	00e78023          	sb	a4,0(a5)
    80001a32:	0000b797          	auipc	a5,0xb
    80001a36:	0b678793          	addi	a5,a5,182 # 8000cae8 <uart_instance>
    80001a3a:	6b9c                	ld	a5,16(a5)
    80001a3c:	fec42703          	lw	a4,-20(s0)
    80001a40:	0ff77713          	andi	a4,a4,255
    80001a44:	85ba                	mv	a1,a4
    80001a46:	853e                	mv	a0,a5
    80001a48:	89bff0ef          	jal	ra,800012e2 <write_uart_character>
    80001a4c:	4781                	li	a5,0
    80001a4e:	853e                	mv	a0,a5
    80001a50:	60e2                	ld	ra,24(sp)
    80001a52:	6442                	ld	s0,16(sp)
    80001a54:	6105                	addi	sp,sp,32
    80001a56:	8082                	ret

0000000080001a58 <section_init>:
    80001a58:	1141                	addi	sp,sp,-16
    80001a5a:	e422                	sd	s0,8(sp)
    80001a5c:	0800                	addi	s0,sp,16
    80001a5e:	0001                	nop
    80001a60:	6422                	ld	s0,8(sp)
    80001a62:	0141                	addi	sp,sp,16
    80001a64:	8082                	ret

0000000080001a66 <trap_init>:
    80001a66:	1141                	addi	sp,sp,-16
    80001a68:	e406                	sd	ra,8(sp)
    80001a6a:	e022                	sd	s0,0(sp)
    80001a6c:	0800                	addi	s0,sp,16
    80001a6e:	00003517          	auipc	a0,0x3
    80001a72:	b8250513          	addi	a0,a0,-1150 # 800045f0 <__rodata_start+0x3a0>
    80001a76:	8f2ff0ef          	jal	ra,80000b68 <log_trace>
    80001a7a:	0000b797          	auipc	a5,0xb
    80001a7e:	f6e78793          	addi	a5,a5,-146 # 8000c9e8 <mcause_interrupt_table>
    80001a82:	fffff717          	auipc	a4,0xfffff
    80001a86:	fe670713          	addi	a4,a4,-26 # 80000a68 <default_handler>
    80001a8a:	e398                	sd	a4,0(a5)
    80001a8c:	0000b797          	auipc	a5,0xb
    80001a90:	f5c78793          	addi	a5,a5,-164 # 8000c9e8 <mcause_interrupt_table>
    80001a94:	fffff717          	auipc	a4,0xfffff
    80001a98:	fd470713          	addi	a4,a4,-44 # 80000a68 <default_handler>
    80001a9c:	e798                	sd	a4,8(a5)
    80001a9e:	0000b797          	auipc	a5,0xb
    80001aa2:	f4a78793          	addi	a5,a5,-182 # 8000c9e8 <mcause_interrupt_table>
    80001aa6:	fffff717          	auipc	a4,0xfffff
    80001aaa:	fc270713          	addi	a4,a4,-62 # 80000a68 <default_handler>
    80001aae:	eb98                	sd	a4,16(a5)
    80001ab0:	0000b797          	auipc	a5,0xb
    80001ab4:	f3878793          	addi	a5,a5,-200 # 8000c9e8 <mcause_interrupt_table>
    80001ab8:	fffff717          	auipc	a4,0xfffff
    80001abc:	fb070713          	addi	a4,a4,-80 # 80000a68 <default_handler>
    80001ac0:	ef98                	sd	a4,24(a5)
    80001ac2:	0000b797          	auipc	a5,0xb
    80001ac6:	f2678793          	addi	a5,a5,-218 # 8000c9e8 <mcause_interrupt_table>
    80001aca:	fffff717          	auipc	a4,0xfffff
    80001ace:	f9e70713          	addi	a4,a4,-98 # 80000a68 <default_handler>
    80001ad2:	f398                	sd	a4,32(a5)
    80001ad4:	0000b797          	auipc	a5,0xb
    80001ad8:	f1478793          	addi	a5,a5,-236 # 8000c9e8 <mcause_interrupt_table>
    80001adc:	fffff717          	auipc	a4,0xfffff
    80001ae0:	f8c70713          	addi	a4,a4,-116 # 80000a68 <default_handler>
    80001ae4:	f798                	sd	a4,40(a5)
    80001ae6:	0000b797          	auipc	a5,0xb
    80001aea:	f0278793          	addi	a5,a5,-254 # 8000c9e8 <mcause_interrupt_table>
    80001aee:	fffff717          	auipc	a4,0xfffff
    80001af2:	f7a70713          	addi	a4,a4,-134 # 80000a68 <default_handler>
    80001af6:	fb98                	sd	a4,48(a5)
    80001af8:	0000b797          	auipc	a5,0xb
    80001afc:	ef078793          	addi	a5,a5,-272 # 8000c9e8 <mcause_interrupt_table>
    80001b00:	00000717          	auipc	a4,0x0
    80001b04:	2c270713          	addi	a4,a4,706 # 80001dc2 <mach_clint_handler>
    80001b08:	ff98                	sd	a4,56(a5)
    80001b0a:	0000b797          	auipc	a5,0xb
    80001b0e:	ede78793          	addi	a5,a5,-290 # 8000c9e8 <mcause_interrupt_table>
    80001b12:	fffff717          	auipc	a4,0xfffff
    80001b16:	f5670713          	addi	a4,a4,-170 # 80000a68 <default_handler>
    80001b1a:	e3b8                	sd	a4,64(a5)
    80001b1c:	0000b797          	auipc	a5,0xb
    80001b20:	ecc78793          	addi	a5,a5,-308 # 8000c9e8 <mcause_interrupt_table>
    80001b24:	fffff717          	auipc	a4,0xfffff
    80001b28:	f4470713          	addi	a4,a4,-188 # 80000a68 <default_handler>
    80001b2c:	e7b8                	sd	a4,72(a5)
    80001b2e:	0000b797          	auipc	a5,0xb
    80001b32:	eba78793          	addi	a5,a5,-326 # 8000c9e8 <mcause_interrupt_table>
    80001b36:	fffff717          	auipc	a4,0xfffff
    80001b3a:	f3270713          	addi	a4,a4,-206 # 80000a68 <default_handler>
    80001b3e:	ebb8                	sd	a4,80(a5)
    80001b40:	0000b797          	auipc	a5,0xb
    80001b44:	ea878793          	addi	a5,a5,-344 # 8000c9e8 <mcause_interrupt_table>
    80001b48:	00000717          	auipc	a4,0x0
    80001b4c:	43c70713          	addi	a4,a4,1084 # 80001f84 <mach_plic_handler>
    80001b50:	efb8                	sd	a4,88(a5)
    80001b52:	0000b797          	auipc	a5,0xb
    80001b56:	e9678793          	addi	a5,a5,-362 # 8000c9e8 <mcause_interrupt_table>
    80001b5a:	fffff717          	auipc	a4,0xfffff
    80001b5e:	f0e70713          	addi	a4,a4,-242 # 80000a68 <default_handler>
    80001b62:	f3b8                	sd	a4,96(a5)
    80001b64:	0000b797          	auipc	a5,0xb
    80001b68:	e8478793          	addi	a5,a5,-380 # 8000c9e8 <mcause_interrupt_table>
    80001b6c:	fffff717          	auipc	a4,0xfffff
    80001b70:	efc70713          	addi	a4,a4,-260 # 80000a68 <default_handler>
    80001b74:	f7b8                	sd	a4,104(a5)
    80001b76:	0000b797          	auipc	a5,0xb
    80001b7a:	e7278793          	addi	a5,a5,-398 # 8000c9e8 <mcause_interrupt_table>
    80001b7e:	fffff717          	auipc	a4,0xfffff
    80001b82:	eea70713          	addi	a4,a4,-278 # 80000a68 <default_handler>
    80001b86:	fbb8                	sd	a4,112(a5)
    80001b88:	0000b797          	auipc	a5,0xb
    80001b8c:	e6078793          	addi	a5,a5,-416 # 8000c9e8 <mcause_interrupt_table>
    80001b90:	fffff717          	auipc	a4,0xfffff
    80001b94:	ed870713          	addi	a4,a4,-296 # 80000a68 <default_handler>
    80001b98:	ffb8                	sd	a4,120(a5)
    80001b9a:	0000b797          	auipc	a5,0xb
    80001b9e:	ece78793          	addi	a5,a5,-306 # 8000ca68 <mcause_trap_table>
    80001ba2:	fffff717          	auipc	a4,0xfffff
    80001ba6:	ec670713          	addi	a4,a4,-314 # 80000a68 <default_handler>
    80001baa:	e398                	sd	a4,0(a5)
    80001bac:	0000b797          	auipc	a5,0xb
    80001bb0:	ebc78793          	addi	a5,a5,-324 # 8000ca68 <mcause_trap_table>
    80001bb4:	fffff717          	auipc	a4,0xfffff
    80001bb8:	eb470713          	addi	a4,a4,-332 # 80000a68 <default_handler>
    80001bbc:	e798                	sd	a4,8(a5)
    80001bbe:	0000b797          	auipc	a5,0xb
    80001bc2:	eaa78793          	addi	a5,a5,-342 # 8000ca68 <mcause_trap_table>
    80001bc6:	fffff717          	auipc	a4,0xfffff
    80001bca:	ea270713          	addi	a4,a4,-350 # 80000a68 <default_handler>
    80001bce:	eb98                	sd	a4,16(a5)
    80001bd0:	0000b797          	auipc	a5,0xb
    80001bd4:	e9878793          	addi	a5,a5,-360 # 8000ca68 <mcause_trap_table>
    80001bd8:	fffff717          	auipc	a4,0xfffff
    80001bdc:	e9070713          	addi	a4,a4,-368 # 80000a68 <default_handler>
    80001be0:	ef98                	sd	a4,24(a5)
    80001be2:	0000b797          	auipc	a5,0xb
    80001be6:	e8678793          	addi	a5,a5,-378 # 8000ca68 <mcause_trap_table>
    80001bea:	fffff717          	auipc	a4,0xfffff
    80001bee:	e7e70713          	addi	a4,a4,-386 # 80000a68 <default_handler>
    80001bf2:	f398                	sd	a4,32(a5)
    80001bf4:	0000b797          	auipc	a5,0xb
    80001bf8:	e7478793          	addi	a5,a5,-396 # 8000ca68 <mcause_trap_table>
    80001bfc:	fffff717          	auipc	a4,0xfffff
    80001c00:	e6c70713          	addi	a4,a4,-404 # 80000a68 <default_handler>
    80001c04:	f798                	sd	a4,40(a5)
    80001c06:	0000b797          	auipc	a5,0xb
    80001c0a:	e6278793          	addi	a5,a5,-414 # 8000ca68 <mcause_trap_table>
    80001c0e:	fffff717          	auipc	a4,0xfffff
    80001c12:	e5a70713          	addi	a4,a4,-422 # 80000a68 <default_handler>
    80001c16:	fb98                	sd	a4,48(a5)
    80001c18:	0000b797          	auipc	a5,0xb
    80001c1c:	e5078793          	addi	a5,a5,-432 # 8000ca68 <mcause_trap_table>
    80001c20:	fffff717          	auipc	a4,0xfffff
    80001c24:	e4870713          	addi	a4,a4,-440 # 80000a68 <default_handler>
    80001c28:	ff98                	sd	a4,56(a5)
    80001c2a:	0000b797          	auipc	a5,0xb
    80001c2e:	e3e78793          	addi	a5,a5,-450 # 8000ca68 <mcause_trap_table>
    80001c32:	fffff717          	auipc	a4,0xfffff
    80001c36:	e3670713          	addi	a4,a4,-458 # 80000a68 <default_handler>
    80001c3a:	e3b8                	sd	a4,64(a5)
    80001c3c:	0000b797          	auipc	a5,0xb
    80001c40:	e2c78793          	addi	a5,a5,-468 # 8000ca68 <mcause_trap_table>
    80001c44:	fffff717          	auipc	a4,0xfffff
    80001c48:	e2470713          	addi	a4,a4,-476 # 80000a68 <default_handler>
    80001c4c:	e7b8                	sd	a4,72(a5)
    80001c4e:	0000b797          	auipc	a5,0xb
    80001c52:	e1a78793          	addi	a5,a5,-486 # 8000ca68 <mcause_trap_table>
    80001c56:	fffff717          	auipc	a4,0xfffff
    80001c5a:	e1270713          	addi	a4,a4,-494 # 80000a68 <default_handler>
    80001c5e:	ebb8                	sd	a4,80(a5)
    80001c60:	0000b797          	auipc	a5,0xb
    80001c64:	e0878793          	addi	a5,a5,-504 # 8000ca68 <mcause_trap_table>
    80001c68:	fffff717          	auipc	a4,0xfffff
    80001c6c:	e0070713          	addi	a4,a4,-512 # 80000a68 <default_handler>
    80001c70:	efb8                	sd	a4,88(a5)
    80001c72:	0000b797          	auipc	a5,0xb
    80001c76:	df678793          	addi	a5,a5,-522 # 8000ca68 <mcause_trap_table>
    80001c7a:	fffff717          	auipc	a4,0xfffff
    80001c7e:	dee70713          	addi	a4,a4,-530 # 80000a68 <default_handler>
    80001c82:	f3b8                	sd	a4,96(a5)
    80001c84:	0000b797          	auipc	a5,0xb
    80001c88:	de478793          	addi	a5,a5,-540 # 8000ca68 <mcause_trap_table>
    80001c8c:	fffff717          	auipc	a4,0xfffff
    80001c90:	ddc70713          	addi	a4,a4,-548 # 80000a68 <default_handler>
    80001c94:	f7b8                	sd	a4,104(a5)
    80001c96:	0000b797          	auipc	a5,0xb
    80001c9a:	dd278793          	addi	a5,a5,-558 # 8000ca68 <mcause_trap_table>
    80001c9e:	fffff717          	auipc	a4,0xfffff
    80001ca2:	dca70713          	addi	a4,a4,-566 # 80000a68 <default_handler>
    80001ca6:	fbb8                	sd	a4,112(a5)
    80001ca8:	0000b797          	auipc	a5,0xb
    80001cac:	dc078793          	addi	a5,a5,-576 # 8000ca68 <mcause_trap_table>
    80001cb0:	fffff717          	auipc	a4,0xfffff
    80001cb4:	db870713          	addi	a4,a4,-584 # 80000a68 <default_handler>
    80001cb8:	ffb8                	sd	a4,120(a5)
    80001cba:	00003517          	auipc	a0,0x3
    80001cbe:	94e50513          	addi	a0,a0,-1714 # 80004608 <__rodata_start+0x3b8>
    80001cc2:	ea7fe0ef          	jal	ra,80000b68 <log_trace>
    80001cc6:	0001                	nop
    80001cc8:	60a2                	ld	ra,8(sp)
    80001cca:	6402                	ld	s0,0(sp)
    80001ccc:	0141                	addi	sp,sp,16
    80001cce:	8082                	ret

0000000080001cd0 <init>:
    80001cd0:	1141                	addi	sp,sp,-16
    80001cd2:	e406                	sd	ra,8(sp)
    80001cd4:	e022                	sd	s0,0(sp)
    80001cd6:	0800                	addi	s0,sp,16
    80001cd8:	cdaff0ef          	jal	ra,800011b2 <uart_init>
    80001cdc:	00003517          	auipc	a0,0x3
    80001ce0:	94450513          	addi	a0,a0,-1724 # 80004620 <__rodata_start+0x3d0>
    80001ce4:	e85fe0ef          	jal	ra,80000b68 <log_trace>
    80001ce8:	d7fff0ef          	jal	ra,80001a66 <trap_init>
    80001cec:	ce8fe0ef          	jal	ra,800001d4 <main>
    80001cf0:	00003517          	auipc	a0,0x3
    80001cf4:	94050513          	addi	a0,a0,-1728 # 80004630 <__rodata_start+0x3e0>
    80001cf8:	e71fe0ef          	jal	ra,80000b68 <log_trace>
    80001cfc:	0001                	nop
    80001cfe:	60a2                	ld	ra,8(sp)
    80001d00:	6402                	ld	s0,0(sp)
    80001d02:	0141                	addi	sp,sp,16
    80001d04:	8082                	ret

0000000080001d06 <mtime_low>:
    80001d06:	1141                	addi	sp,sp,-16
    80001d08:	e422                	sd	s0,8(sp)
    80001d0a:	0800                	addi	s0,sp,16
    80001d0c:	4000c7b7          	lui	a5,0x4000c
    80001d10:	17e1                	addi	a5,a5,-8
    80001d12:	639c                	ld	a5,0(a5)
    80001d14:	853e                	mv	a0,a5
    80001d16:	6422                	ld	s0,8(sp)
    80001d18:	0141                	addi	sp,sp,16
    80001d1a:	8082                	ret

0000000080001d1c <mtime_high>:
    80001d1c:	1141                	addi	sp,sp,-16
    80001d1e:	e422                	sd	s0,8(sp)
    80001d20:	0800                	addi	s0,sp,16
    80001d22:	4000c7b7          	lui	a5,0x4000c
    80001d26:	17f1                	addi	a5,a5,-4
    80001d28:	439c                	lw	a5,0(a5)
    80001d2a:	2781                	sext.w	a5,a5
    80001d2c:	853e                	mv	a0,a5
    80001d2e:	6422                	ld	s0,8(sp)
    80001d30:	0141                	addi	sp,sp,16
    80001d32:	8082                	ret

0000000080001d34 <get_timer_value>:
    80001d34:	1141                	addi	sp,sp,-16
    80001d36:	e406                	sd	ra,8(sp)
    80001d38:	e022                	sd	s0,0(sp)
    80001d3a:	0800                	addi	s0,sp,16
    80001d3c:	fcbff0ef          	jal	ra,80001d06 <mtime_low>
    80001d40:	87aa                	mv	a5,a0
    80001d42:	853e                	mv	a0,a5
    80001d44:	60a2                	ld	ra,8(sp)
    80001d46:	6402                	ld	s0,0(sp)
    80001d48:	0141                	addi	sp,sp,16
    80001d4a:	8082                	ret

0000000080001d4c <configure_counter>:
    80001d4c:	1101                	addi	sp,sp,-32
    80001d4e:	ec06                	sd	ra,24(sp)
    80001d50:	e822                	sd	s0,16(sp)
    80001d52:	1000                	addi	s0,sp,32
    80001d54:	fea43423          	sd	a0,-24(s0)
    80001d58:	00003517          	auipc	a0,0x3
    80001d5c:	8e850513          	addi	a0,a0,-1816 # 80004640 <__rodata_start+0x3f0>
    80001d60:	e09fe0ef          	jal	ra,80000b68 <log_trace>
    80001d64:	85818793          	addi	a5,gp,-1960 # 80005488 <mtime>
    80001d68:	639c                	ld	a5,0(a5)
    80001d6a:	4394                	lw	a3,0(a5)
    80001d6c:	fe843783          	ld	a5,-24(s0)
    80001d70:	0007871b          	sext.w	a4,a5
    80001d74:	86018793          	addi	a5,gp,-1952 # 80005490 <mtimecmp>
    80001d78:	639c                	ld	a5,0(a5)
    80001d7a:	9f35                	addw	a4,a4,a3
    80001d7c:	2701                	sext.w	a4,a4
    80001d7e:	c398                	sw	a4,0(a5)
    80001d80:	86018793          	addi	a5,gp,-1952 # 80005490 <mtimecmp>
    80001d84:	639c                	ld	a5,0(a5)
    80001d86:	439c                	lw	a5,0(a5)
    80001d88:	85be                	mv	a1,a5
    80001d8a:	00003517          	auipc	a0,0x3
    80001d8e:	8d650513          	addi	a0,a0,-1834 # 80004660 <__rodata_start+0x410>
    80001d92:	dfbfe0ef          	jal	ra,80000b8c <log_info>
    80001d96:	85818793          	addi	a5,gp,-1960 # 80005488 <mtime>
    80001d9a:	639c                	ld	a5,0(a5)
    80001d9c:	439c                	lw	a5,0(a5)
    80001d9e:	85be                	mv	a1,a5
    80001da0:	00003517          	auipc	a0,0x3
    80001da4:	8d850513          	addi	a0,a0,-1832 # 80004678 <__rodata_start+0x428>
    80001da8:	de5fe0ef          	jal	ra,80000b8c <log_info>
    80001dac:	00003517          	auipc	a0,0x3
    80001db0:	8e450513          	addi	a0,a0,-1820 # 80004690 <__rodata_start+0x440>
    80001db4:	db5fe0ef          	jal	ra,80000b68 <log_trace>
    80001db8:	0001                	nop
    80001dba:	60e2                	ld	ra,24(sp)
    80001dbc:	6442                	ld	s0,16(sp)
    80001dbe:	6105                	addi	sp,sp,32
    80001dc0:	8082                	ret

0000000080001dc2 <mach_clint_handler>:
    80001dc2:	1101                	addi	sp,sp,-32
    80001dc4:	ec06                	sd	ra,24(sp)
    80001dc6:	e822                	sd	s0,16(sp)
    80001dc8:	1000                	addi	s0,sp,32
    80001dca:	fea43423          	sd	a0,-24(s0)
    80001dce:	feb43023          	sd	a1,-32(s0)
    80001dd2:	00003517          	auipc	a0,0x3
    80001dd6:	8de50513          	addi	a0,a0,-1826 # 800046b0 <__rodata_start+0x460>
    80001dda:	d8ffe0ef          	jal	ra,80000b68 <log_trace>
    80001dde:	86018793          	addi	a5,gp,-1952 # 80005490 <mtimecmp>
    80001de2:	639c                	ld	a5,0(a5)
    80001de4:	577d                	li	a4,-1
    80001de6:	c398                	sw	a4,0(a5)
    80001de8:	86018793          	addi	a5,gp,-1952 # 80005490 <mtimecmp>
    80001dec:	639c                	ld	a5,0(a5)
    80001dee:	439c                	lw	a5,0(a5)
    80001df0:	85be                	mv	a1,a5
    80001df2:	00003517          	auipc	a0,0x3
    80001df6:	8de50513          	addi	a0,a0,-1826 # 800046d0 <__rodata_start+0x480>
    80001dfa:	dddfe0ef          	jal	ra,80000bd6 <log_debug>
    80001dfe:	0200c7b7          	lui	a5,0x200c
    80001e02:	17e1                	addi	a5,a5,-8
    80001e04:	439c                	lw	a5,0(a5)
    80001e06:	85be                	mv	a1,a5
    80001e08:	00003517          	auipc	a0,0x3
    80001e0c:	8e050513          	addi	a0,a0,-1824 # 800046e8 <__rodata_start+0x498>
    80001e10:	dc7fe0ef          	jal	ra,80000bd6 <log_debug>
    80001e14:	00003517          	auipc	a0,0x3
    80001e18:	8ec50513          	addi	a0,a0,-1812 # 80004700 <__rodata_start+0x4b0>
    80001e1c:	d4dfe0ef          	jal	ra,80000b68 <log_trace>
    80001e20:	0001                	nop
    80001e22:	60e2                	ld	ra,24(sp)
    80001e24:	6442                	ld	s0,16(sp)
    80001e26:	6105                	addi	sp,sp,32
    80001e28:	8082                	ret

0000000080001e2a <interrupt_complete>:
    80001e2a:	7179                	addi	sp,sp,-48
    80001e2c:	f406                	sd	ra,40(sp)
    80001e2e:	f022                	sd	s0,32(sp)
    80001e30:	1800                	addi	s0,sp,48
    80001e32:	87aa                	mv	a5,a0
    80001e34:	fcf42e23          	sw	a5,-36(s0)
    80001e38:	00003517          	auipc	a0,0x3
    80001e3c:	8e850513          	addi	a0,a0,-1816 # 80004720 <__rodata_start+0x4d0>
    80001e40:	d29fe0ef          	jal	ra,80000b68 <log_trace>
    80001e44:	0c0107b7          	lui	a5,0xc010
    80001e48:	07c1                	addi	a5,a5,16
    80001e4a:	fef43423          	sd	a5,-24(s0)
    80001e4e:	fe843783          	ld	a5,-24(s0)
    80001e52:	fdc42703          	lw	a4,-36(s0)
    80001e56:	c398                	sw	a4,0(a5)
    80001e58:	0000b717          	auipc	a4,0xb
    80001e5c:	ca870713          	addi	a4,a4,-856 # 8000cb00 <hart0_interrupt_matrix>
    80001e60:	fdc46783          	lwu	a5,-36(s0)
    80001e64:	0792                	slli	a5,a5,0x4
    80001e66:	97ba                	add	a5,a5,a4
    80001e68:	4709                	li	a4,2
    80001e6a:	c798                	sw	a4,8(a5)
    80001e6c:	0000b717          	auipc	a4,0xb
    80001e70:	c9470713          	addi	a4,a4,-876 # 8000cb00 <hart0_interrupt_matrix>
    80001e74:	fdc46783          	lwu	a5,-36(s0)
    80001e78:	0792                	slli	a5,a5,0x4
    80001e7a:	97ba                	add	a5,a5,a4
    80001e7c:	47dc                	lw	a5,12(a5)
    80001e7e:	2785                	addiw	a5,a5,1
    80001e80:	0007871b          	sext.w	a4,a5
    80001e84:	0000b697          	auipc	a3,0xb
    80001e88:	c7c68693          	addi	a3,a3,-900 # 8000cb00 <hart0_interrupt_matrix>
    80001e8c:	fdc46783          	lwu	a5,-36(s0)
    80001e90:	0792                	slli	a5,a5,0x4
    80001e92:	97b6                	add	a5,a5,a3
    80001e94:	c7d8                	sw	a4,12(a5)
    80001e96:	0000b717          	auipc	a4,0xb
    80001e9a:	c6a70713          	addi	a4,a4,-918 # 8000cb00 <hart0_interrupt_matrix>
    80001e9e:	fdc46783          	lwu	a5,-36(s0)
    80001ea2:	0792                	slli	a5,a5,0x4
    80001ea4:	97ba                	add	a5,a5,a4
    80001ea6:	4798                	lw	a4,8(a5)
    80001ea8:	fdc42783          	lw	a5,-36(s0)
    80001eac:	863a                	mv	a2,a4
    80001eae:	85be                	mv	a1,a5
    80001eb0:	00003517          	auipc	a0,0x3
    80001eb4:	89050513          	addi	a0,a0,-1904 # 80004740 <__rodata_start+0x4f0>
    80001eb8:	d1ffe0ef          	jal	ra,80000bd6 <log_debug>
    80001ebc:	0000b717          	auipc	a4,0xb
    80001ec0:	c4470713          	addi	a4,a4,-956 # 8000cb00 <hart0_interrupt_matrix>
    80001ec4:	fdc46783          	lwu	a5,-36(s0)
    80001ec8:	0792                	slli	a5,a5,0x4
    80001eca:	97ba                	add	a5,a5,a4
    80001ecc:	438c                	lw	a1,0(a5)
    80001ece:	0000b717          	auipc	a4,0xb
    80001ed2:	c3270713          	addi	a4,a4,-974 # 8000cb00 <hart0_interrupt_matrix>
    80001ed6:	fdc46783          	lwu	a5,-36(s0)
    80001eda:	0792                	slli	a5,a5,0x4
    80001edc:	97ba                	add	a5,a5,a4
    80001ede:	4790                	lw	a2,8(a5)
    80001ee0:	0000b717          	auipc	a4,0xb
    80001ee4:	c2070713          	addi	a4,a4,-992 # 8000cb00 <hart0_interrupt_matrix>
    80001ee8:	fdc46783          	lwu	a5,-36(s0)
    80001eec:	0792                	slli	a5,a5,0x4
    80001eee:	97ba                	add	a5,a5,a4
    80001ef0:	43d4                	lw	a3,4(a5)
    80001ef2:	0000b717          	auipc	a4,0xb
    80001ef6:	c0e70713          	addi	a4,a4,-1010 # 8000cb00 <hart0_interrupt_matrix>
    80001efa:	fdc46783          	lwu	a5,-36(s0)
    80001efe:	0792                	slli	a5,a5,0x4
    80001f00:	97ba                	add	a5,a5,a4
    80001f02:	47dc                	lw	a5,12(a5)
    80001f04:	873e                	mv	a4,a5
    80001f06:	00003517          	auipc	a0,0x3
    80001f0a:	86250513          	addi	a0,a0,-1950 # 80004768 <__rodata_start+0x518>
    80001f0e:	cc9fe0ef          	jal	ra,80000bd6 <log_debug>
    80001f12:	00003517          	auipc	a0,0x3
    80001f16:	8ae50513          	addi	a0,a0,-1874 # 800047c0 <__rodata_start+0x570>
    80001f1a:	c4ffe0ef          	jal	ra,80000b68 <log_trace>
    80001f1e:	0001                	nop
    80001f20:	70a2                	ld	ra,40(sp)
    80001f22:	7402                	ld	s0,32(sp)
    80001f24:	6145                	addi	sp,sp,48
    80001f26:	8082                	ret

0000000080001f28 <interrupt_claim_request>:
    80001f28:	1101                	addi	sp,sp,-32
    80001f2a:	ec06                	sd	ra,24(sp)
    80001f2c:	e822                	sd	s0,16(sp)
    80001f2e:	1000                	addi	s0,sp,32
    80001f30:	fe043423          	sd	zero,-24(s0)
    80001f34:	00003517          	auipc	a0,0x3
    80001f38:	8ac50513          	addi	a0,a0,-1876 # 800047e0 <__rodata_start+0x590>
    80001f3c:	c2dfe0ef          	jal	ra,80000b68 <log_trace>
    80001f40:	0c0107b7          	lui	a5,0xc010
    80001f44:	07c1                	addi	a5,a5,16
    80001f46:	fef43423          	sd	a5,-24(s0)
    80001f4a:	fe843783          	ld	a5,-24(s0)
    80001f4e:	439c                	lw	a5,0(a5)
    80001f50:	fef42223          	sw	a5,-28(s0)
    80001f54:	fe442783          	lw	a5,-28(s0)
    80001f58:	fe843603          	ld	a2,-24(s0)
    80001f5c:	85be                	mv	a1,a5
    80001f5e:	00003517          	auipc	a0,0x3
    80001f62:	8aa50513          	addi	a0,a0,-1878 # 80004808 <__rodata_start+0x5b8>
    80001f66:	c71fe0ef          	jal	ra,80000bd6 <log_debug>
    80001f6a:	00003517          	auipc	a0,0x3
    80001f6e:	8ce50513          	addi	a0,a0,-1842 # 80004838 <__rodata_start+0x5e8>
    80001f72:	bf7fe0ef          	jal	ra,80000b68 <log_trace>
    80001f76:	fe442783          	lw	a5,-28(s0)
    80001f7a:	853e                	mv	a0,a5
    80001f7c:	60e2                	ld	ra,24(sp)
    80001f7e:	6442                	ld	s0,16(sp)
    80001f80:	6105                	addi	sp,sp,32
    80001f82:	8082                	ret

0000000080001f84 <mach_plic_handler>:
    80001f84:	7179                	addi	sp,sp,-48
    80001f86:	f406                	sd	ra,40(sp)
    80001f88:	f022                	sd	s0,32(sp)
    80001f8a:	1800                	addi	s0,sp,48
    80001f8c:	fca43c23          	sd	a0,-40(s0)
    80001f90:	fcb43823          	sd	a1,-48(s0)
    80001f94:	00003517          	auipc	a0,0x3
    80001f98:	8c450513          	addi	a0,a0,-1852 # 80004858 <__rodata_start+0x608>
    80001f9c:	bcdfe0ef          	jal	ra,80000b68 <log_trace>
    80001fa0:	f89ff0ef          	jal	ra,80001f28 <interrupt_claim_request>
    80001fa4:	87aa                	mv	a5,a0
    80001fa6:	fef42623          	sw	a5,-20(s0)
    80001faa:	fec42783          	lw	a5,-20(s0)
    80001fae:	85be                	mv	a1,a5
    80001fb0:	00003517          	auipc	a0,0x3
    80001fb4:	8c850513          	addi	a0,a0,-1848 # 80004878 <__rodata_start+0x628>
    80001fb8:	c1ffe0ef          	jal	ra,80000bd6 <log_debug>
    80001fbc:	fec42783          	lw	a5,-20(s0)
    80001fc0:	2781                	sext.w	a5,a5
    80001fc2:	cb81                	beqz	a5,80001fd2 <mach_plic_handler+0x4e>
    80001fc4:	fec42783          	lw	a5,-20(s0)
    80001fc8:	0007871b          	sext.w	a4,a5
    80001fcc:	47f1                	li	a5,28
    80001fce:	00e7fb63          	bgeu	a5,a4,80001fe4 <mach_plic_handler+0x60>
    80001fd2:	fec42783          	lw	a5,-20(s0)
    80001fd6:	85be                	mv	a1,a5
    80001fd8:	00003517          	auipc	a0,0x3
    80001fdc:	8c050513          	addi	a0,a0,-1856 # 80004898 <__rodata_start+0x648>
    80001fe0:	caffe0ef          	jal	ra,80000c8e <log_fatal>
    80001fe4:	0000b717          	auipc	a4,0xb
    80001fe8:	b1c70713          	addi	a4,a4,-1252 # 8000cb00 <hart0_interrupt_matrix>
    80001fec:	fec46783          	lwu	a5,-20(s0)
    80001ff0:	0792                	slli	a5,a5,0x4
    80001ff2:	97ba                	add	a5,a5,a4
    80001ff4:	4705                	li	a4,1
    80001ff6:	c798                	sw	a4,8(a5)
    80001ff8:	0000b717          	auipc	a4,0xb
    80001ffc:	b0870713          	addi	a4,a4,-1272 # 8000cb00 <hart0_interrupt_matrix>
    80002000:	fec46783          	lwu	a5,-20(s0)
    80002004:	0792                	slli	a5,a5,0x4
    80002006:	97ba                	add	a5,a5,a4
    80002008:	4798                	lw	a4,8(a5)
    8000200a:	fec42783          	lw	a5,-20(s0)
    8000200e:	863a                	mv	a2,a4
    80002010:	85be                	mv	a1,a5
    80002012:	00002517          	auipc	a0,0x2
    80002016:	72e50513          	addi	a0,a0,1838 # 80004740 <__rodata_start+0x4f0>
    8000201a:	bbdfe0ef          	jal	ra,80000bd6 <log_debug>
    8000201e:	0000b717          	auipc	a4,0xb
    80002022:	ca270713          	addi	a4,a4,-862 # 8000ccc0 <isr_table>
    80002026:	fec46783          	lwu	a5,-20(s0)
    8000202a:	078e                	slli	a5,a5,0x3
    8000202c:	97ba                	add	a5,a5,a4
    8000202e:	6398                	ld	a4,0(a5)
    80002030:	fec42783          	lw	a5,-20(s0)
    80002034:	853e                	mv	a0,a5
    80002036:	9702                	jalr	a4
    80002038:	fec42783          	lw	a5,-20(s0)
    8000203c:	853e                	mv	a0,a5
    8000203e:	dedff0ef          	jal	ra,80001e2a <interrupt_complete>
    80002042:	fec42783          	lw	a5,-20(s0)
    80002046:	85be                	mv	a1,a5
    80002048:	00003517          	auipc	a0,0x3
    8000204c:	88850513          	addi	a0,a0,-1912 # 800048d0 <__rodata_start+0x680>
    80002050:	b87fe0ef          	jal	ra,80000bd6 <log_debug>
    80002054:	00003517          	auipc	a0,0x3
    80002058:	89c50513          	addi	a0,a0,-1892 # 800048f0 <__rodata_start+0x6a0>
    8000205c:	b0dfe0ef          	jal	ra,80000b68 <log_trace>
    80002060:	0001                	nop
    80002062:	70a2                	ld	ra,40(sp)
    80002064:	7402                	ld	s0,32(sp)
    80002066:	6145                	addi	sp,sp,48
    80002068:	8082                	ret

000000008000206a <isr_default>:
    8000206a:	1101                	addi	sp,sp,-32
    8000206c:	ec06                	sd	ra,24(sp)
    8000206e:	e822                	sd	s0,16(sp)
    80002070:	1000                	addi	s0,sp,32
    80002072:	87aa                	mv	a5,a0
    80002074:	fef42623          	sw	a5,-20(s0)
    80002078:	00003517          	auipc	a0,0x3
    8000207c:	89850513          	addi	a0,a0,-1896 # 80004910 <__rodata_start+0x6c0>
    80002080:	ae9fe0ef          	jal	ra,80000b68 <log_trace>
    80002084:	fec42783          	lw	a5,-20(s0)
    80002088:	2781                	sext.w	a5,a5
    8000208a:	c3a1                	beqz	a5,800020ca <isr_default+0x60>
    8000208c:	fec42783          	lw	a5,-20(s0)
    80002090:	0007871b          	sext.w	a4,a5
    80002094:	4799                	li	a5,6
    80002096:	02e7ea63          	bltu	a5,a4,800020ca <isr_default+0x60>
    8000209a:	4719                	li	a4,6
    8000209c:	fec42783          	lw	a5,-20(s0)
    800020a0:	40f707bb          	subw	a5,a4,a5
    800020a4:	2781                	sext.w	a5,a5
    800020a6:	2781                	sext.w	a5,a5
    800020a8:	853e                	mv	a0,a5
    800020aa:	770000ef          	jal	ra,8000281a <pwm_check_continuous_mode>
    800020ae:	87aa                	mv	a5,a0
    800020b0:	ef89                	bnez	a5,800020ca <isr_default+0x60>
    800020b2:	4719                	li	a4,6
    800020b4:	fec42783          	lw	a5,-20(s0)
    800020b8:	40f707bb          	subw	a5,a4,a5
    800020bc:	2781                	sext.w	a5,a5
    800020be:	2781                	sext.w	a5,a5
    800020c0:	08000593          	li	a1,128
    800020c4:	853e                	mv	a0,a5
    800020c6:	6ce000ef          	jal	ra,80002794 <set_pwm_control_register>
    800020ca:	fec42783          	lw	a5,-20(s0)
    800020ce:	85be                	mv	a1,a5
    800020d0:	00003517          	auipc	a0,0x3
    800020d4:	85850513          	addi	a0,a0,-1960 # 80004928 <__rodata_start+0x6d8>
    800020d8:	ab5fe0ef          	jal	ra,80000b8c <log_info>
    800020dc:	00003517          	auipc	a0,0x3
    800020e0:	86c50513          	addi	a0,a0,-1940 # 80004948 <__rodata_start+0x6f8>
    800020e4:	a85fe0ef          	jal	ra,80000b68 <log_trace>
    800020e8:	0001                	nop
    800020ea:	60e2                	ld	ra,24(sp)
    800020ec:	6442                	ld	s0,16(sp)
    800020ee:	6105                	addi	sp,sp,32
    800020f0:	8082                	ret

00000000800020f2 <interrupt_enable>:
    800020f2:	7139                	addi	sp,sp,-64
    800020f4:	fc06                	sd	ra,56(sp)
    800020f6:	f822                	sd	s0,48(sp)
    800020f8:	0080                	addi	s0,sp,64
    800020fa:	87aa                	mv	a5,a0
    800020fc:	fcf42623          	sw	a5,-52(s0)
    80002100:	fe0407a3          	sb	zero,-17(s0)
    80002104:	00003517          	auipc	a0,0x3
    80002108:	85c50513          	addi	a0,a0,-1956 # 80004960 <__rodata_start+0x710>
    8000210c:	a5dfe0ef          	jal	ra,80000b68 <log_trace>
    80002110:	fcc42783          	lw	a5,-52(s0)
    80002114:	85be                	mv	a1,a5
    80002116:	00003517          	auipc	a0,0x3
    8000211a:	86a50513          	addi	a0,a0,-1942 # 80004980 <__rodata_start+0x730>
    8000211e:	ab9fe0ef          	jal	ra,80000bd6 <log_debug>
    80002122:	6609                	lui	a2,0x2
    80002124:	0c0005b7          	lui	a1,0xc000
    80002128:	00003517          	auipc	a0,0x3
    8000212c:	87050513          	addi	a0,a0,-1936 # 80004998 <__rodata_start+0x748>
    80002130:	aa7fe0ef          	jal	ra,80000bd6 <log_debug>
    80002134:	fcc42783          	lw	a5,-52(s0)
    80002138:	0037d79b          	srliw	a5,a5,0x3
    8000213c:	2781                	sext.w	a5,a5
    8000213e:	02079713          	slli	a4,a5,0x20
    80002142:	9301                	srli	a4,a4,0x20
    80002144:	0c0027b7          	lui	a5,0xc002
    80002148:	97ba                	add	a5,a5,a4
    8000214a:	fef43023          	sd	a5,-32(s0)
    8000214e:	fe043783          	ld	a5,-32(s0)
    80002152:	0007c783          	lbu	a5,0(a5) # c002000 <_free_space+0x400f1a0>
    80002156:	fef407a3          	sb	a5,-17(s0)
    8000215a:	fef44783          	lbu	a5,-17(s0)
    8000215e:	2781                	sext.w	a5,a5
    80002160:	863e                	mv	a2,a5
    80002162:	fe043583          	ld	a1,-32(s0)
    80002166:	00003517          	auipc	a0,0x3
    8000216a:	86a50513          	addi	a0,a0,-1942 # 800049d0 <__rodata_start+0x780>
    8000216e:	a69fe0ef          	jal	ra,80000bd6 <log_debug>
    80002172:	fcc42783          	lw	a5,-52(s0)
    80002176:	8b9d                	andi	a5,a5,7
    80002178:	2781                	sext.w	a5,a5
    8000217a:	4705                	li	a4,1
    8000217c:	00f717bb          	sllw	a5,a4,a5
    80002180:	2781                	sext.w	a5,a5
    80002182:	0187971b          	slliw	a4,a5,0x18
    80002186:	4187571b          	sraiw	a4,a4,0x18
    8000218a:	fef40783          	lb	a5,-17(s0)
    8000218e:	8fd9                	or	a5,a5,a4
    80002190:	0187979b          	slliw	a5,a5,0x18
    80002194:	4187d79b          	sraiw	a5,a5,0x18
    80002198:	fcf40fa3          	sb	a5,-33(s0)
    8000219c:	fe043783          	ld	a5,-32(s0)
    800021a0:	fdf44703          	lbu	a4,-33(s0)
    800021a4:	00e78023          	sb	a4,0(a5)
    800021a8:	fe043783          	ld	a5,-32(s0)
    800021ac:	0007c783          	lbu	a5,0(a5)
    800021b0:	2781                	sext.w	a5,a5
    800021b2:	863e                	mv	a2,a5
    800021b4:	fe043583          	ld	a1,-32(s0)
    800021b8:	00003517          	auipc	a0,0x3
    800021bc:	84850513          	addi	a0,a0,-1976 # 80004a00 <__rodata_start+0x7b0>
    800021c0:	a17fe0ef          	jal	ra,80000bd6 <log_debug>
    800021c4:	fe043783          	ld	a5,-32(s0)
    800021c8:	0007c783          	lbu	a5,0(a5)
    800021cc:	2781                	sext.w	a5,a5
    800021ce:	85be                	mv	a1,a5
    800021d0:	00003517          	auipc	a0,0x3
    800021d4:	86050513          	addi	a0,a0,-1952 # 80004a30 <__rodata_start+0x7e0>
    800021d8:	9fffe0ef          	jal	ra,80000bd6 <log_debug>
    800021dc:	00003517          	auipc	a0,0x3
    800021e0:	87450513          	addi	a0,a0,-1932 # 80004a50 <__rodata_start+0x800>
    800021e4:	985fe0ef          	jal	ra,80000b68 <log_trace>
    800021e8:	0001                	nop
    800021ea:	70e2                	ld	ra,56(sp)
    800021ec:	7442                	ld	s0,48(sp)
    800021ee:	6121                	addi	sp,sp,64
    800021f0:	8082                	ret

00000000800021f2 <interrupt_disable>:
    800021f2:	7179                	addi	sp,sp,-48
    800021f4:	f406                	sd	ra,40(sp)
    800021f6:	f022                	sd	s0,32(sp)
    800021f8:	1800                	addi	s0,sp,48
    800021fa:	87aa                	mv	a5,a0
    800021fc:	fcf42e23          	sw	a5,-36(s0)
    80002200:	fe043423          	sd	zero,-24(s0)
    80002204:	fe0403a3          	sb	zero,-25(s0)
    80002208:	00003517          	auipc	a0,0x3
    8000220c:	86850513          	addi	a0,a0,-1944 # 80004a70 <__rodata_start+0x820>
    80002210:	959fe0ef          	jal	ra,80000b68 <log_trace>
    80002214:	fdc42783          	lw	a5,-36(s0)
    80002218:	85be                	mv	a1,a5
    8000221a:	00002517          	auipc	a0,0x2
    8000221e:	76650513          	addi	a0,a0,1894 # 80004980 <__rodata_start+0x730>
    80002222:	9b5fe0ef          	jal	ra,80000bd6 <log_debug>
    80002226:	fdc42783          	lw	a5,-36(s0)
    8000222a:	86be                	mv	a3,a5
    8000222c:	6609                	lui	a2,0x2
    8000222e:	0c0005b7          	lui	a1,0xc000
    80002232:	00003517          	auipc	a0,0x3
    80002236:	85e50513          	addi	a0,a0,-1954 # 80004a90 <__rodata_start+0x840>
    8000223a:	99dfe0ef          	jal	ra,80000bd6 <log_debug>
    8000223e:	fdc42783          	lw	a5,-36(s0)
    80002242:	0037d79b          	srliw	a5,a5,0x3
    80002246:	2781                	sext.w	a5,a5
    80002248:	02079713          	slli	a4,a5,0x20
    8000224c:	9301                	srli	a4,a4,0x20
    8000224e:	0c0027b7          	lui	a5,0xc002
    80002252:	97ba                	add	a5,a5,a4
    80002254:	fef43423          	sd	a5,-24(s0)
    80002258:	fe843783          	ld	a5,-24(s0)
    8000225c:	0007c783          	lbu	a5,0(a5) # c002000 <_free_space+0x400f1a0>
    80002260:	fef403a3          	sb	a5,-25(s0)
    80002264:	fe744783          	lbu	a5,-25(s0)
    80002268:	2781                	sext.w	a5,a5
    8000226a:	863e                	mv	a2,a5
    8000226c:	fe843583          	ld	a1,-24(s0)
    80002270:	00003517          	auipc	a0,0x3
    80002274:	86850513          	addi	a0,a0,-1944 # 80004ad8 <__rodata_start+0x888>
    80002278:	95ffe0ef          	jal	ra,80000bd6 <log_debug>
    8000227c:	fdc42783          	lw	a5,-36(s0)
    80002280:	8b9d                	andi	a5,a5,7
    80002282:	2781                	sext.w	a5,a5
    80002284:	4705                	li	a4,1
    80002286:	00f717bb          	sllw	a5,a4,a5
    8000228a:	2781                	sext.w	a5,a5
    8000228c:	0187979b          	slliw	a5,a5,0x18
    80002290:	4187d79b          	sraiw	a5,a5,0x18
    80002294:	fff7c793          	not	a5,a5
    80002298:	0187971b          	slliw	a4,a5,0x18
    8000229c:	4187571b          	sraiw	a4,a4,0x18
    800022a0:	fe740783          	lb	a5,-25(s0)
    800022a4:	8ff9                	and	a5,a5,a4
    800022a6:	0187979b          	slliw	a5,a5,0x18
    800022aa:	4187d79b          	sraiw	a5,a5,0x18
    800022ae:	fef40323          	sb	a5,-26(s0)
    800022b2:	fe843783          	ld	a5,-24(s0)
    800022b6:	fe644703          	lbu	a4,-26(s0)
    800022ba:	00e78023          	sb	a4,0(a5)
    800022be:	0000b717          	auipc	a4,0xb
    800022c2:	84270713          	addi	a4,a4,-1982 # 8000cb00 <hart0_interrupt_matrix>
    800022c6:	fdc46783          	lwu	a5,-36(s0)
    800022ca:	0792                	slli	a5,a5,0x4
    800022cc:	97ba                	add	a5,a5,a4
    800022ce:	0007a423          	sw	zero,8(a5)
    800022d2:	0000b717          	auipc	a4,0xb
    800022d6:	82e70713          	addi	a4,a4,-2002 # 8000cb00 <hart0_interrupt_matrix>
    800022da:	fdc46783          	lwu	a5,-36(s0)
    800022de:	0792                	slli	a5,a5,0x4
    800022e0:	97ba                	add	a5,a5,a4
    800022e2:	4798                	lw	a4,8(a5)
    800022e4:	fdc42783          	lw	a5,-36(s0)
    800022e8:	863a                	mv	a2,a4
    800022ea:	85be                	mv	a1,a5
    800022ec:	00002517          	auipc	a0,0x2
    800022f0:	45450513          	addi	a0,a0,1108 # 80004740 <__rodata_start+0x4f0>
    800022f4:	8e3fe0ef          	jal	ra,80000bd6 <log_debug>
    800022f8:	fe843783          	ld	a5,-24(s0)
    800022fc:	0007c783          	lbu	a5,0(a5)
    80002300:	2781                	sext.w	a5,a5
    80002302:	863e                	mv	a2,a5
    80002304:	fe843583          	ld	a1,-24(s0)
    80002308:	00003517          	auipc	a0,0x3
    8000230c:	80850513          	addi	a0,a0,-2040 # 80004b10 <__rodata_start+0x8c0>
    80002310:	8c7fe0ef          	jal	ra,80000bd6 <log_debug>
    80002314:	00003517          	auipc	a0,0x3
    80002318:	82c50513          	addi	a0,a0,-2004 # 80004b40 <__rodata_start+0x8f0>
    8000231c:	84dfe0ef          	jal	ra,80000b68 <log_trace>
    80002320:	0001                	nop
    80002322:	70a2                	ld	ra,40(sp)
    80002324:	7402                	ld	s0,32(sp)
    80002326:	6145                	addi	sp,sp,48
    80002328:	8082                	ret

000000008000232a <set_interrupt_threshold>:
    8000232a:	7179                	addi	sp,sp,-48
    8000232c:	f406                	sd	ra,40(sp)
    8000232e:	f022                	sd	s0,32(sp)
    80002330:	1800                	addi	s0,sp,48
    80002332:	87aa                	mv	a5,a0
    80002334:	fcf42e23          	sw	a5,-36(s0)
    80002338:	00003517          	auipc	a0,0x3
    8000233c:	82850513          	addi	a0,a0,-2008 # 80004b60 <__rodata_start+0x910>
    80002340:	829fe0ef          	jal	ra,80000b68 <log_trace>
    80002344:	fe043423          	sd	zero,-24(s0)
    80002348:	0c0107b7          	lui	a5,0xc010
    8000234c:	fef43423          	sd	a5,-24(s0)
    80002350:	fe843783          	ld	a5,-24(s0)
    80002354:	fdc42703          	lw	a4,-36(s0)
    80002358:	c398                	sw	a4,0(a5)
    8000235a:	fe843783          	ld	a5,-24(s0)
    8000235e:	439c                	lw	a5,0(a5)
    80002360:	85be                	mv	a1,a5
    80002362:	00003517          	auipc	a0,0x3
    80002366:	82650513          	addi	a0,a0,-2010 # 80004b88 <__rodata_start+0x938>
    8000236a:	86dfe0ef          	jal	ra,80000bd6 <log_debug>
    8000236e:	00003517          	auipc	a0,0x3
    80002372:	83a50513          	addi	a0,a0,-1990 # 80004ba8 <__rodata_start+0x958>
    80002376:	ff2fe0ef          	jal	ra,80000b68 <log_trace>
    8000237a:	0001                	nop
    8000237c:	70a2                	ld	ra,40(sp)
    8000237e:	7402                	ld	s0,32(sp)
    80002380:	6145                	addi	sp,sp,48
    80002382:	8082                	ret

0000000080002384 <set_interrupt_priority>:
    80002384:	7179                	addi	sp,sp,-48
    80002386:	f406                	sd	ra,40(sp)
    80002388:	f022                	sd	s0,32(sp)
    8000238a:	1800                	addi	s0,sp,48
    8000238c:	87aa                	mv	a5,a0
    8000238e:	872e                	mv	a4,a1
    80002390:	fcf42e23          	sw	a5,-36(s0)
    80002394:	87ba                	mv	a5,a4
    80002396:	fcf42c23          	sw	a5,-40(s0)
    8000239a:	fdc42783          	lw	a5,-36(s0)
    8000239e:	85be                	mv	a1,a5
    800023a0:	00003517          	auipc	a0,0x3
    800023a4:	82850513          	addi	a0,a0,-2008 # 80004bc8 <__rodata_start+0x978>
    800023a8:	fc0fe0ef          	jal	ra,80000b68 <log_trace>
    800023ac:	fd842783          	lw	a5,-40(s0)
    800023b0:	0027979b          	slliw	a5,a5,0x2
    800023b4:	2781                	sext.w	a5,a5
    800023b6:	02079713          	slli	a4,a5,0x20
    800023ba:	9301                	srli	a4,a4,0x20
    800023bc:	0c0007b7          	lui	a5,0xc000
    800023c0:	97ba                	add	a5,a5,a4
    800023c2:	fef43423          	sd	a5,-24(s0)
    800023c6:	fe843583          	ld	a1,-24(s0)
    800023ca:	00003517          	auipc	a0,0x3
    800023ce:	82650513          	addi	a0,a0,-2010 # 80004bf0 <__rodata_start+0x9a0>
    800023d2:	805fe0ef          	jal	ra,80000bd6 <log_debug>
    800023d6:	fe843783          	ld	a5,-24(s0)
    800023da:	439c                	lw	a5,0(a5)
    800023dc:	85be                	mv	a1,a5
    800023de:	00003517          	auipc	a0,0x3
    800023e2:	83a50513          	addi	a0,a0,-1990 # 80004c18 <__rodata_start+0x9c8>
    800023e6:	ff0fe0ef          	jal	ra,80000bd6 <log_debug>
    800023ea:	fe843783          	ld	a5,-24(s0)
    800023ee:	fdc42703          	lw	a4,-36(s0)
    800023f2:	c398                	sw	a4,0(a5)
    800023f4:	fe843783          	ld	a5,-24(s0)
    800023f8:	439c                	lw	a5,0(a5)
    800023fa:	85be                	mv	a1,a5
    800023fc:	00003517          	auipc	a0,0x3
    80002400:	85450513          	addi	a0,a0,-1964 # 80004c50 <__rodata_start+0xa00>
    80002404:	fd2fe0ef          	jal	ra,80000bd6 <log_debug>
    80002408:	00003517          	auipc	a0,0x3
    8000240c:	87850513          	addi	a0,a0,-1928 # 80004c80 <__rodata_start+0xa30>
    80002410:	f58fe0ef          	jal	ra,80000b68 <log_trace>
    80002414:	0001                	nop
    80002416:	70a2                	ld	ra,40(sp)
    80002418:	7402                	ld	s0,32(sp)
    8000241a:	6145                	addi	sp,sp,48
    8000241c:	8082                	ret

000000008000241e <configure_interrupt_pin>:
    8000241e:	7179                	addi	sp,sp,-48
    80002420:	f406                	sd	ra,40(sp)
    80002422:	f022                	sd	s0,32(sp)
    80002424:	1800                	addi	s0,sp,48
    80002426:	87aa                	mv	a5,a0
    80002428:	fcf42e23          	sw	a5,-36(s0)
    8000242c:	00003517          	auipc	a0,0x3
    80002430:	87450513          	addi	a0,a0,-1932 # 80004ca0 <__rodata_start+0xa50>
    80002434:	f34fe0ef          	jal	ra,80000b68 <log_trace>
    80002438:	000407b7          	lui	a5,0x40
    8000243c:	10078513          	addi	a0,a5,256 # 40100 <_tbss_end+0x40100>
    80002440:	d58fe0ef          	jal	ra,80000998 <read_word>
    80002444:	87aa                	mv	a5,a0
    80002446:	fef42623          	sw	a5,-20(s0)
    8000244a:	fec42783          	lw	a5,-20(s0)
    8000244e:	85be                	mv	a1,a5
    80002450:	00003517          	auipc	a0,0x3
    80002454:	87850513          	addi	a0,a0,-1928 # 80004cc8 <__rodata_start+0xa78>
    80002458:	f7efe0ef          	jal	ra,80000bd6 <log_debug>
    8000245c:	4581                	li	a1,0
    8000245e:	000407b7          	lui	a5,0x40
    80002462:	10078513          	addi	a0,a5,256 # 40100 <_tbss_end+0x40100>
    80002466:	d6afe0ef          	jal	ra,800009d0 <write_word>
    8000246a:	000407b7          	lui	a5,0x40
    8000246e:	10078513          	addi	a0,a5,256 # 40100 <_tbss_end+0x40100>
    80002472:	d26fe0ef          	jal	ra,80000998 <read_word>
    80002476:	87aa                	mv	a5,a0
    80002478:	85be                	mv	a1,a5
    8000247a:	00003517          	auipc	a0,0x3
    8000247e:	87650513          	addi	a0,a0,-1930 # 80004cf0 <__rodata_start+0xaa0>
    80002482:	f54fe0ef          	jal	ra,80000bd6 <log_debug>
    80002486:	00003517          	auipc	a0,0x3
    8000248a:	89a50513          	addi	a0,a0,-1894 # 80004d20 <__rodata_start+0xad0>
    8000248e:	edafe0ef          	jal	ra,80000b68 <log_trace>
    80002492:	0001                	nop
    80002494:	70a2                	ld	ra,40(sp)
    80002496:	7402                	ld	s0,32(sp)
    80002498:	6145                	addi	sp,sp,48
    8000249a:	8082                	ret

000000008000249c <plic_init>:
    8000249c:	1101                	addi	sp,sp,-32
    8000249e:	ec06                	sd	ra,24(sp)
    800024a0:	e822                	sd	s0,16(sp)
    800024a2:	1000                	addi	s0,sp,32
    800024a4:	fe042623          	sw	zero,-20(s0)
    800024a8:	00003517          	auipc	a0,0x3
    800024ac:	89850513          	addi	a0,a0,-1896 # 80004d40 <__rodata_start+0xaf0>
    800024b0:	eb8fe0ef          	jal	ra,80000b68 <log_trace>
    800024b4:	0000a797          	auipc	a5,0xa
    800024b8:	53478793          	addi	a5,a5,1332 # 8000c9e8 <mcause_interrupt_table>
    800024bc:	00000717          	auipc	a4,0x0
    800024c0:	ac870713          	addi	a4,a4,-1336 # 80001f84 <mach_plic_handler>
    800024c4:	efb8                	sd	a4,88(a5)
    800024c6:	45ad                	li	a1,11
    800024c8:	00003517          	auipc	a0,0x3
    800024cc:	89050513          	addi	a0,a0,-1904 # 80004d58 <__rodata_start+0xb08>
    800024d0:	f06fe0ef          	jal	ra,80000bd6 <log_debug>
    800024d4:	0000a797          	auipc	a5,0xa
    800024d8:	62c78793          	addi	a5,a5,1580 # 8000cb00 <hart0_interrupt_matrix>
    800024dc:	0007a423          	sw	zero,8(a5)
    800024e0:	0000a797          	auipc	a5,0xa
    800024e4:	62078793          	addi	a5,a5,1568 # 8000cb00 <hart0_interrupt_matrix>
    800024e8:	0007a023          	sw	zero,0(a5)
    800024ec:	0000a797          	auipc	a5,0xa
    800024f0:	61478793          	addi	a5,a5,1556 # 8000cb00 <hart0_interrupt_matrix>
    800024f4:	0007a223          	sw	zero,4(a5)
    800024f8:	0000a797          	auipc	a5,0xa
    800024fc:	60878793          	addi	a5,a5,1544 # 8000cb00 <hart0_interrupt_matrix>
    80002500:	0007a623          	sw	zero,12(a5)
    80002504:	fec42783          	lw	a5,-20(s0)
    80002508:	853e                	mv	a0,a5
    8000250a:	ce9ff0ef          	jal	ra,800021f2 <interrupt_disable>
    8000250e:	4785                	li	a5,1
    80002510:	fef42623          	sw	a5,-20(s0)
    80002514:	a8c5                	j	80002604 <plic_init+0x168>
    80002516:	0000a717          	auipc	a4,0xa
    8000251a:	5ea70713          	addi	a4,a4,1514 # 8000cb00 <hart0_interrupt_matrix>
    8000251e:	fec46783          	lwu	a5,-20(s0)
    80002522:	0792                	slli	a5,a5,0x4
    80002524:	97ba                	add	a5,a5,a4
    80002526:	0007a423          	sw	zero,8(a5)
    8000252a:	0000a717          	auipc	a4,0xa
    8000252e:	5d670713          	addi	a4,a4,1494 # 8000cb00 <hart0_interrupt_matrix>
    80002532:	fec46783          	lwu	a5,-20(s0)
    80002536:	0792                	slli	a5,a5,0x4
    80002538:	97ba                	add	a5,a5,a4
    8000253a:	fec42703          	lw	a4,-20(s0)
    8000253e:	c398                	sw	a4,0(a5)
    80002540:	0000a717          	auipc	a4,0xa
    80002544:	5c070713          	addi	a4,a4,1472 # 8000cb00 <hart0_interrupt_matrix>
    80002548:	fec46783          	lwu	a5,-20(s0)
    8000254c:	0792                	slli	a5,a5,0x4
    8000254e:	97ba                	add	a5,a5,a4
    80002550:	4709                	li	a4,2
    80002552:	c3d8                	sw	a4,4(a5)
    80002554:	0000a717          	auipc	a4,0xa
    80002558:	5ac70713          	addi	a4,a4,1452 # 8000cb00 <hart0_interrupt_matrix>
    8000255c:	fec46783          	lwu	a5,-20(s0)
    80002560:	0792                	slli	a5,a5,0x4
    80002562:	97ba                	add	a5,a5,a4
    80002564:	0007a623          	sw	zero,12(a5)
    80002568:	00003517          	auipc	a0,0x3
    8000256c:	82050513          	addi	a0,a0,-2016 # 80004d88 <__rodata_start+0xb38>
    80002570:	e66fe0ef          	jal	ra,80000bd6 <log_debug>
    80002574:	fec42783          	lw	a5,-20(s0)
    80002578:	853e                	mv	a0,a5
    8000257a:	c79ff0ef          	jal	ra,800021f2 <interrupt_disable>
    8000257e:	0000a717          	auipc	a4,0xa
    80002582:	74270713          	addi	a4,a4,1858 # 8000ccc0 <isr_table>
    80002586:	fec46783          	lwu	a5,-20(s0)
    8000258a:	078e                	slli	a5,a5,0x3
    8000258c:	97ba                	add	a5,a5,a4
    8000258e:	00000717          	auipc	a4,0x0
    80002592:	adc70713          	addi	a4,a4,-1316 # 8000206a <isr_default>
    80002596:	e398                	sd	a4,0(a5)
    80002598:	fec42783          	lw	a5,-20(s0)
    8000259c:	85be                	mv	a1,a5
    8000259e:	4509                	li	a0,2
    800025a0:	de5ff0ef          	jal	ra,80002384 <set_interrupt_priority>
    800025a4:	0000a717          	auipc	a4,0xa
    800025a8:	55c70713          	addi	a4,a4,1372 # 8000cb00 <hart0_interrupt_matrix>
    800025ac:	fec46783          	lwu	a5,-20(s0)
    800025b0:	0792                	slli	a5,a5,0x4
    800025b2:	97ba                	add	a5,a5,a4
    800025b4:	438c                	lw	a1,0(a5)
    800025b6:	0000a717          	auipc	a4,0xa
    800025ba:	54a70713          	addi	a4,a4,1354 # 8000cb00 <hart0_interrupt_matrix>
    800025be:	fec46783          	lwu	a5,-20(s0)
    800025c2:	0792                	slli	a5,a5,0x4
    800025c4:	97ba                	add	a5,a5,a4
    800025c6:	4790                	lw	a2,8(a5)
    800025c8:	0000a717          	auipc	a4,0xa
    800025cc:	53870713          	addi	a4,a4,1336 # 8000cb00 <hart0_interrupt_matrix>
    800025d0:	fec46783          	lwu	a5,-20(s0)
    800025d4:	0792                	slli	a5,a5,0x4
    800025d6:	97ba                	add	a5,a5,a4
    800025d8:	43d4                	lw	a3,4(a5)
    800025da:	0000a717          	auipc	a4,0xa
    800025de:	52670713          	addi	a4,a4,1318 # 8000cb00 <hart0_interrupt_matrix>
    800025e2:	fec46783          	lwu	a5,-20(s0)
    800025e6:	0792                	slli	a5,a5,0x4
    800025e8:	97ba                	add	a5,a5,a4
    800025ea:	47dc                	lw	a5,12(a5)
    800025ec:	873e                	mv	a4,a5
    800025ee:	00002517          	auipc	a0,0x2
    800025f2:	7d250513          	addi	a0,a0,2002 # 80004dc0 <__rodata_start+0xb70>
    800025f6:	de0fe0ef          	jal	ra,80000bd6 <log_debug>
    800025fa:	fec42783          	lw	a5,-20(s0)
    800025fe:	2785                	addiw	a5,a5,1
    80002600:	fef42623          	sw	a5,-20(s0)
    80002604:	fec42783          	lw	a5,-20(s0)
    80002608:	0007871b          	sext.w	a4,a5
    8000260c:	47ed                	li	a5,27
    8000260e:	f0e7f4e3          	bgeu	a5,a4,80002516 <plic_init+0x7a>
    80002612:	4505                	li	a0,1
    80002614:	d17ff0ef          	jal	ra,8000232a <set_interrupt_threshold>
    80002618:	00003517          	auipc	a0,0x3
    8000261c:	83850513          	addi	a0,a0,-1992 # 80004e50 <__rodata_start+0xc00>
    80002620:	d48fe0ef          	jal	ra,80000b68 <log_trace>
    80002624:	0001                	nop
    80002626:	60e2                	ld	ra,24(sp)
    80002628:	6442                	ld	s0,16(sp)
    8000262a:	6105                	addi	sp,sp,32
    8000262c:	8082                	ret

000000008000262e <configure_interrupt>:
    8000262e:	1101                	addi	sp,sp,-32
    80002630:	ec06                	sd	ra,24(sp)
    80002632:	e822                	sd	s0,16(sp)
    80002634:	1000                	addi	s0,sp,32
    80002636:	87aa                	mv	a5,a0
    80002638:	fef42623          	sw	a5,-20(s0)
    8000263c:	00003517          	auipc	a0,0x3
    80002640:	82c50513          	addi	a0,a0,-2004 # 80004e68 <__rodata_start+0xc18>
    80002644:	d24fe0ef          	jal	ra,80000b68 <log_trace>
    80002648:	fec42783          	lw	a5,-20(s0)
    8000264c:	85be                	mv	a1,a5
    8000264e:	00003517          	auipc	a0,0x3
    80002652:	83a50513          	addi	a0,a0,-1990 # 80004e88 <__rodata_start+0xc38>
    80002656:	d80fe0ef          	jal	ra,80000bd6 <log_debug>
    8000265a:	fec42783          	lw	a5,-20(s0)
    8000265e:	853e                	mv	a0,a5
    80002660:	dbfff0ef          	jal	ra,8000241e <configure_interrupt_pin>
    80002664:	fec42783          	lw	a5,-20(s0)
    80002668:	853e                	mv	a0,a5
    8000266a:	a89ff0ef          	jal	ra,800020f2 <interrupt_enable>
    8000266e:	00003517          	auipc	a0,0x3
    80002672:	83250513          	addi	a0,a0,-1998 # 80004ea0 <__rodata_start+0xc50>
    80002676:	cf2fe0ef          	jal	ra,80000b68 <log_trace>
    8000267a:	0001                	nop
    8000267c:	60e2                	ld	ra,24(sp)
    8000267e:	6442                	ld	s0,16(sp)
    80002680:	6105                	addi	sp,sp,32
    80002682:	8082                	ret

0000000080002684 <set_pwm_period_register>:
    80002684:	7179                	addi	sp,sp,-48
    80002686:	f406                	sd	ra,40(sp)
    80002688:	f022                	sd	s0,32(sp)
    8000268a:	1800                	addi	s0,sp,48
    8000268c:	87aa                	mv	a5,a0
    8000268e:	872e                	mv	a4,a1
    80002690:	fcf42e23          	sw	a5,-36(s0)
    80002694:	87ba                	mv	a5,a4
    80002696:	fcf42c23          	sw	a5,-40(s0)
    8000269a:	fd842783          	lw	a5,-40(s0)
    8000269e:	0007871b          	sext.w	a4,a5
    800026a2:	67c1                	lui	a5,0x10
    800026a4:	00f74d63          	blt	a4,a5,800026be <set_pwm_period_register+0x3a>
    800026a8:	67c1                	lui	a5,0x10
    800026aa:	fff78593          	addi	a1,a5,-1 # ffff <_tbss_end+0xffff>
    800026ae:	00003517          	auipc	a0,0x3
    800026b2:	81250513          	addi	a0,a0,-2030 # 80004ec0 <__rodata_start+0xc70>
    800026b6:	d8efe0ef          	jal	ra,80000c44 <log_error>
    800026ba:	4781                	li	a5,0
    800026bc:	a091                	j	80002700 <set_pwm_period_register+0x7c>
    800026be:	fdc42783          	lw	a5,-36(s0)
    800026c2:	3007879b          	addiw	a5,a5,768
    800026c6:	2781                	sext.w	a5,a5
    800026c8:	0087979b          	slliw	a5,a5,0x8
    800026cc:	2781                	sext.w	a5,a5
    800026ce:	fef43423          	sd	a5,-24(s0)
    800026d2:	fd842783          	lw	a5,-40(s0)
    800026d6:	0107971b          	slliw	a4,a5,0x10
    800026da:	4107571b          	sraiw	a4,a4,0x10
    800026de:	fe843783          	ld	a5,-24(s0)
    800026e2:	00e79023          	sh	a4,0(a5)
    800026e6:	fd842703          	lw	a4,-40(s0)
    800026ea:	fdc42783          	lw	a5,-36(s0)
    800026ee:	863a                	mv	a2,a4
    800026f0:	85be                	mv	a1,a5
    800026f2:	00003517          	auipc	a0,0x3
    800026f6:	80650513          	addi	a0,a0,-2042 # 80004ef8 <__rodata_start+0xca8>
    800026fa:	c92fe0ef          	jal	ra,80000b8c <log_info>
    800026fe:	4785                	li	a5,1
    80002700:	853e                	mv	a0,a5
    80002702:	70a2                	ld	ra,40(sp)
    80002704:	7402                	ld	s0,32(sp)
    80002706:	6145                	addi	sp,sp,48
    80002708:	8082                	ret

000000008000270a <set_pwm_duty_register>:
    8000270a:	7179                	addi	sp,sp,-48
    8000270c:	f406                	sd	ra,40(sp)
    8000270e:	f022                	sd	s0,32(sp)
    80002710:	1800                	addi	s0,sp,48
    80002712:	87aa                	mv	a5,a0
    80002714:	872e                	mv	a4,a1
    80002716:	fcf42e23          	sw	a5,-36(s0)
    8000271a:	87ba                	mv	a5,a4
    8000271c:	fcf42c23          	sw	a5,-40(s0)
    80002720:	fd842783          	lw	a5,-40(s0)
    80002724:	0007871b          	sext.w	a4,a5
    80002728:	67c1                	lui	a5,0x10
    8000272a:	00f74d63          	blt	a4,a5,80002744 <set_pwm_duty_register+0x3a>
    8000272e:	67c1                	lui	a5,0x10
    80002730:	fff78593          	addi	a1,a5,-1 # ffff <_tbss_end+0xffff>
    80002734:	00002517          	auipc	a0,0x2
    80002738:	7f450513          	addi	a0,a0,2036 # 80004f28 <__rodata_start+0xcd8>
    8000273c:	d08fe0ef          	jal	ra,80000c44 <log_error>
    80002740:	4781                	li	a5,0
    80002742:	a0a1                	j	8000278a <set_pwm_duty_register+0x80>
    80002744:	fdc42783          	lw	a5,-36(s0)
    80002748:	3007879b          	addiw	a5,a5,768
    8000274c:	2781                	sext.w	a5,a5
    8000274e:	0087979b          	slliw	a5,a5,0x8
    80002752:	2781                	sext.w	a5,a5
    80002754:	2791                	addiw	a5,a5,4
    80002756:	2781                	sext.w	a5,a5
    80002758:	fef43423          	sd	a5,-24(s0)
    8000275c:	fd842783          	lw	a5,-40(s0)
    80002760:	0107971b          	slliw	a4,a5,0x10
    80002764:	4107571b          	sraiw	a4,a4,0x10
    80002768:	fe843783          	ld	a5,-24(s0)
    8000276c:	00e79023          	sh	a4,0(a5)
    80002770:	fd842703          	lw	a4,-40(s0)
    80002774:	fdc42783          	lw	a5,-36(s0)
    80002778:	863a                	mv	a2,a4
    8000277a:	85be                	mv	a1,a5
    8000277c:	00002517          	auipc	a0,0x2
    80002780:	7dc50513          	addi	a0,a0,2012 # 80004f58 <__rodata_start+0xd08>
    80002784:	c08fe0ef          	jal	ra,80000b8c <log_info>
    80002788:	4785                	li	a5,1
    8000278a:	853e                	mv	a0,a5
    8000278c:	70a2                	ld	ra,40(sp)
    8000278e:	7402                	ld	s0,32(sp)
    80002790:	6145                	addi	sp,sp,48
    80002792:	8082                	ret

0000000080002794 <set_pwm_control_register>:
    80002794:	7179                	addi	sp,sp,-48
    80002796:	f406                	sd	ra,40(sp)
    80002798:	f022                	sd	s0,32(sp)
    8000279a:	1800                	addi	s0,sp,48
    8000279c:	87aa                	mv	a5,a0
    8000279e:	872e                	mv	a4,a1
    800027a0:	fcf42e23          	sw	a5,-36(s0)
    800027a4:	87ba                	mv	a5,a4
    800027a6:	fcf42c23          	sw	a5,-40(s0)
    800027aa:	fd842783          	lw	a5,-40(s0)
    800027ae:	0007871b          	sext.w	a4,a5
    800027b2:	0ff00793          	li	a5,255
    800027b6:	00e7dc63          	bge	a5,a4,800027ce <set_pwm_control_register+0x3a>
    800027ba:	0ff00593          	li	a1,255
    800027be:	00002517          	auipc	a0,0x2
    800027c2:	7ca50513          	addi	a0,a0,1994 # 80004f88 <__rodata_start+0xd38>
    800027c6:	c7efe0ef          	jal	ra,80000c44 <log_error>
    800027ca:	4781                	li	a5,0
    800027cc:	a091                	j	80002810 <set_pwm_control_register+0x7c>
    800027ce:	fdc42783          	lw	a5,-36(s0)
    800027d2:	3007879b          	addiw	a5,a5,768
    800027d6:	2781                	sext.w	a5,a5
    800027d8:	0087979b          	slliw	a5,a5,0x8
    800027dc:	2781                	sext.w	a5,a5
    800027de:	27a1                	addiw	a5,a5,8
    800027e0:	2781                	sext.w	a5,a5
    800027e2:	fef43423          	sd	a5,-24(s0)
    800027e6:	fd842783          	lw	a5,-40(s0)
    800027ea:	0ff7f713          	andi	a4,a5,255
    800027ee:	fe843783          	ld	a5,-24(s0)
    800027f2:	00e78023          	sb	a4,0(a5)
    800027f6:	fd842703          	lw	a4,-40(s0)
    800027fa:	fdc42783          	lw	a5,-36(s0)
    800027fe:	863a                	mv	a2,a4
    80002800:	85be                	mv	a1,a5
    80002802:	00002517          	auipc	a0,0x2
    80002806:	7be50513          	addi	a0,a0,1982 # 80004fc0 <__rodata_start+0xd70>
    8000280a:	b82fe0ef          	jal	ra,80000b8c <log_info>
    8000280e:	4785                	li	a5,1
    80002810:	853e                	mv	a0,a5
    80002812:	70a2                	ld	ra,40(sp)
    80002814:	7402                	ld	s0,32(sp)
    80002816:	6145                	addi	sp,sp,48
    80002818:	8082                	ret

000000008000281a <pwm_check_continuous_mode>:
    8000281a:	7179                	addi	sp,sp,-48
    8000281c:	f406                	sd	ra,40(sp)
    8000281e:	f022                	sd	s0,32(sp)
    80002820:	1800                	addi	s0,sp,48
    80002822:	87aa                	mv	a5,a0
    80002824:	fcf42e23          	sw	a5,-36(s0)
    80002828:	fdc42783          	lw	a5,-36(s0)
    8000282c:	3007879b          	addiw	a5,a5,768
    80002830:	2781                	sext.w	a5,a5
    80002832:	0087979b          	slliw	a5,a5,0x8
    80002836:	2781                	sext.w	a5,a5
    80002838:	27a1                	addiw	a5,a5,8
    8000283a:	2781                	sext.w	a5,a5
    8000283c:	fef43423          	sd	a5,-24(s0)
    80002840:	fe843783          	ld	a5,-24(s0)
    80002844:	0007c783          	lbu	a5,0(a5)
    80002848:	0ff7f793          	andi	a5,a5,255
    8000284c:	2781                	sext.w	a5,a5
    8000284e:	8ba1                	andi	a5,a5,8
    80002850:	fef42223          	sw	a5,-28(s0)
    80002854:	fe442783          	lw	a5,-28(s0)
    80002858:	4037d79b          	sraiw	a5,a5,0x3
    8000285c:	2781                	sext.w	a5,a5
    8000285e:	85be                	mv	a1,a5
    80002860:	00002517          	auipc	a0,0x2
    80002864:	79850513          	addi	a0,a0,1944 # 80004ff8 <__rodata_start+0xda8>
    80002868:	b24fe0ef          	jal	ra,80000b8c <log_info>
    8000286c:	fe442783          	lw	a5,-28(s0)
    80002870:	4037d79b          	sraiw	a5,a5,0x3
    80002874:	2781                	sext.w	a5,a5
    80002876:	873e                	mv	a4,a5
    80002878:	4785                	li	a5,1
    8000287a:	00f71463          	bne	a4,a5,80002882 <pwm_check_continuous_mode+0x68>
    8000287e:	4785                	li	a5,1
    80002880:	a011                	j	80002884 <pwm_check_continuous_mode+0x6a>
    80002882:	4781                	li	a5,0
    80002884:	853e                	mv	a0,a5
    80002886:	70a2                	ld	ra,40(sp)
    80002888:	7402                	ld	s0,32(sp)
    8000288a:	6145                	addi	sp,sp,48
    8000288c:	8082                	ret

000000008000288e <set_pwm_clock_register>:
    8000288e:	7179                	addi	sp,sp,-48
    80002890:	f406                	sd	ra,40(sp)
    80002892:	f022                	sd	s0,32(sp)
    80002894:	1800                	addi	s0,sp,48
    80002896:	87aa                	mv	a5,a0
    80002898:	872e                	mv	a4,a1
    8000289a:	fcf42e23          	sw	a5,-36(s0)
    8000289e:	87ba                	mv	a5,a4
    800028a0:	fcf42c23          	sw	a5,-40(s0)
    800028a4:	fd842783          	lw	a5,-40(s0)
    800028a8:	0007871b          	sext.w	a4,a5
    800028ac:	67c1                	lui	a5,0x10
    800028ae:	00f74d63          	blt	a4,a5,800028c8 <set_pwm_clock_register+0x3a>
    800028b2:	67c1                	lui	a5,0x10
    800028b4:	fff78593          	addi	a1,a5,-1 # ffff <_tbss_end+0xffff>
    800028b8:	00002517          	auipc	a0,0x2
    800028bc:	76850513          	addi	a0,a0,1896 # 80005020 <__rodata_start+0xdd0>
    800028c0:	b84fe0ef          	jal	ra,80000c44 <log_error>
    800028c4:	4781                	li	a5,0
    800028c6:	a805                	j	800028f6 <set_pwm_clock_register+0x68>
    800028c8:	fdc42783          	lw	a5,-36(s0)
    800028cc:	3007879b          	addiw	a5,a5,768
    800028d0:	2781                	sext.w	a5,a5
    800028d2:	0087979b          	slliw	a5,a5,0x8
    800028d6:	2781                	sext.w	a5,a5
    800028d8:	27b1                	addiw	a5,a5,12
    800028da:	2781                	sext.w	a5,a5
    800028dc:	fef43423          	sd	a5,-24(s0)
    800028e0:	fd842783          	lw	a5,-40(s0)
    800028e4:	0107971b          	slliw	a4,a5,0x10
    800028e8:	4107571b          	sraiw	a4,a4,0x10
    800028ec:	fe843783          	ld	a5,-24(s0)
    800028f0:	00e79023          	sh	a4,0(a5)
    800028f4:	4785                	li	a5,1
    800028f6:	853e                	mv	a0,a5
    800028f8:	70a2                	ld	ra,40(sp)
    800028fa:	7402                	ld	s0,32(sp)
    800028fc:	6145                	addi	sp,sp,48
    800028fe:	8082                	ret

0000000080002900 <pwm_clear_registers>:
    80002900:	1101                	addi	sp,sp,-32
    80002902:	ec06                	sd	ra,24(sp)
    80002904:	e822                	sd	s0,16(sp)
    80002906:	1000                	addi	s0,sp,32
    80002908:	87aa                	mv	a5,a0
    8000290a:	fef42623          	sw	a5,-20(s0)
    8000290e:	fec42783          	lw	a5,-20(s0)
    80002912:	4581                	li	a1,0
    80002914:	853e                	mv	a0,a5
    80002916:	d6fff0ef          	jal	ra,80002684 <set_pwm_period_register>
    8000291a:	fec42783          	lw	a5,-20(s0)
    8000291e:	4581                	li	a1,0
    80002920:	853e                	mv	a0,a5
    80002922:	de9ff0ef          	jal	ra,8000270a <set_pwm_duty_register>
    80002926:	fec42783          	lw	a5,-20(s0)
    8000292a:	4581                	li	a1,0
    8000292c:	853e                	mv	a0,a5
    8000292e:	e67ff0ef          	jal	ra,80002794 <set_pwm_control_register>
    80002932:	fec42783          	lw	a5,-20(s0)
    80002936:	4581                	li	a1,0
    80002938:	853e                	mv	a0,a5
    8000293a:	f55ff0ef          	jal	ra,8000288e <set_pwm_clock_register>
    8000293e:	fec42783          	lw	a5,-20(s0)
    80002942:	85be                	mv	a1,a5
    80002944:	00002517          	auipc	a0,0x2
    80002948:	71450513          	addi	a0,a0,1812 # 80005058 <__rodata_start+0xe08>
    8000294c:	a40fe0ef          	jal	ra,80000b8c <log_info>
    80002950:	0001                	nop
    80002952:	60e2                	ld	ra,24(sp)
    80002954:	6442                	ld	s0,16(sp)
    80002956:	6105                	addi	sp,sp,32
    80002958:	8082                	ret

000000008000295a <pwm_init>:
    8000295a:	1101                	addi	sp,sp,-32
    8000295c:	ec06                	sd	ra,24(sp)
    8000295e:	e822                	sd	s0,16(sp)
    80002960:	1000                	addi	s0,sp,32
    80002962:	fe042623          	sw	zero,-20(s0)
    80002966:	a819                	j	8000297c <pwm_init+0x22>
    80002968:	fec42783          	lw	a5,-20(s0)
    8000296c:	853e                	mv	a0,a5
    8000296e:	f93ff0ef          	jal	ra,80002900 <pwm_clear_registers>
    80002972:	fec42783          	lw	a5,-20(s0)
    80002976:	2785                	addiw	a5,a5,1
    80002978:	fef42623          	sw	a5,-20(s0)
    8000297c:	fec42783          	lw	a5,-20(s0)
    80002980:	0007871b          	sext.w	a4,a5
    80002984:	4791                	li	a5,4
    80002986:	fee7d1e3          	bge	a5,a4,80002968 <pwm_init+0xe>
    8000298a:	00002517          	auipc	a0,0x2
    8000298e:	6fe50513          	addi	a0,a0,1790 # 80005088 <__rodata_start+0xe38>
    80002992:	9fafe0ef          	jal	ra,80000b8c <log_info>
    80002996:	0001                	nop
    80002998:	60e2                	ld	ra,24(sp)
    8000299a:	6442                	ld	s0,16(sp)
    8000299c:	6105                	addi	sp,sp,32
    8000299e:	8082                	ret

00000000800029a0 <configure_control_register_mode>:
    800029a0:	7179                	addi	sp,sp,-48
    800029a2:	f406                	sd	ra,40(sp)
    800029a4:	f022                	sd	s0,32(sp)
    800029a6:	1800                	addi	s0,sp,48
    800029a8:	87aa                	mv	a5,a0
    800029aa:	fcf42e23          	sw	a5,-36(s0)
    800029ae:	fe042623          	sw	zero,-20(s0)
    800029b2:	fdc42783          	lw	a5,-36(s0)
    800029b6:	2781                	sext.w	a5,a5
    800029b8:	e79d                	bnez	a5,800029e6 <configure_control_register_mode+0x46>
    800029ba:	00002517          	auipc	a0,0x2
    800029be:	6fe50513          	addi	a0,a0,1790 # 800050b8 <__rodata_start+0xe68>
    800029c2:	9cafe0ef          	jal	ra,80000b8c <log_info>
    800029c6:	fec42783          	lw	a5,-20(s0)
    800029ca:	2789                	addiw	a5,a5,2
    800029cc:	fef42623          	sw	a5,-20(s0)
    800029d0:	fec42783          	lw	a5,-20(s0)
    800029d4:	2791                	addiw	a5,a5,4
    800029d6:	fef42623          	sw	a5,-20(s0)
    800029da:	fec42783          	lw	a5,-20(s0)
    800029de:	27c1                	addiw	a5,a5,16
    800029e0:	fef42623          	sw	a5,-20(s0)
    800029e4:	a899                	j	80002a3a <configure_control_register_mode+0x9a>
    800029e6:	fdc42783          	lw	a5,-36(s0)
    800029ea:	0007871b          	sext.w	a4,a5
    800029ee:	4785                	li	a5,1
    800029f0:	00f71e63          	bne	a4,a5,80002a0c <configure_control_register_mode+0x6c>
    800029f4:	00002517          	auipc	a0,0x2
    800029f8:	6ec50513          	addi	a0,a0,1772 # 800050e0 <__rodata_start+0xe90>
    800029fc:	990fe0ef          	jal	ra,80000b8c <log_info>
    80002a00:	fec42783          	lw	a5,-20(s0)
    80002a04:	2791                	addiw	a5,a5,4
    80002a06:	fef42623          	sw	a5,-20(s0)
    80002a0a:	a805                	j	80002a3a <configure_control_register_mode+0x9a>
    80002a0c:	fdc42783          	lw	a5,-36(s0)
    80002a10:	0007871b          	sext.w	a4,a5
    80002a14:	4789                	li	a5,2
    80002a16:	02f71263          	bne	a4,a5,80002a3a <configure_control_register_mode+0x9a>
    80002a1a:	00002517          	auipc	a0,0x2
    80002a1e:	6f650513          	addi	a0,a0,1782 # 80005110 <__rodata_start+0xec0>
    80002a22:	96afe0ef          	jal	ra,80000b8c <log_info>
    80002a26:	fec42783          	lw	a5,-20(s0)
    80002a2a:	2791                	addiw	a5,a5,4
    80002a2c:	fef42623          	sw	a5,-20(s0)
    80002a30:	fec42783          	lw	a5,-20(s0)
    80002a34:	27a1                	addiw	a5,a5,8
    80002a36:	fef42623          	sw	a5,-20(s0)
    80002a3a:	fec42783          	lw	a5,-20(s0)
    80002a3e:	853e                	mv	a0,a5
    80002a40:	70a2                	ld	ra,40(sp)
    80002a42:	7402                	ld	s0,32(sp)
    80002a44:	6145                	addi	sp,sp,48
    80002a46:	8082                	ret

0000000080002a48 <pwm_start>:
    80002a48:	7179                	addi	sp,sp,-48
    80002a4a:	f406                	sd	ra,40(sp)
    80002a4c:	f022                	sd	s0,32(sp)
    80002a4e:	1800                	addi	s0,sp,48
    80002a50:	87aa                	mv	a5,a0
    80002a52:	872e                	mv	a4,a1
    80002a54:	fcf42e23          	sw	a5,-36(s0)
    80002a58:	87ba                	mv	a5,a4
    80002a5a:	fcf42c23          	sw	a5,-40(s0)
    80002a5e:	fd842783          	lw	a5,-40(s0)
    80002a62:	853e                	mv	a0,a5
    80002a64:	f3dff0ef          	jal	ra,800029a0 <configure_control_register_mode>
    80002a68:	87aa                	mv	a5,a0
    80002a6a:	fef42623          	sw	a5,-20(s0)
    80002a6e:	fec42703          	lw	a4,-20(s0)
    80002a72:	fdc42783          	lw	a5,-36(s0)
    80002a76:	85ba                	mv	a1,a4
    80002a78:	853e                	mv	a0,a5
    80002a7a:	d1bff0ef          	jal	ra,80002794 <set_pwm_control_register>
    80002a7e:	87aa                	mv	a5,a0
    80002a80:	cb91                	beqz	a5,80002a94 <pwm_start+0x4c>
    80002a82:	fdc42783          	lw	a5,-36(s0)
    80002a86:	85be                	mv	a1,a5
    80002a88:	00002517          	auipc	a0,0x2
    80002a8c:	6c050513          	addi	a0,a0,1728 # 80005148 <__rodata_start+0xef8>
    80002a90:	8fcfe0ef          	jal	ra,80000b8c <log_info>
    80002a94:	fec42703          	lw	a4,-20(s0)
    80002a98:	fdc42783          	lw	a5,-36(s0)
    80002a9c:	85ba                	mv	a1,a4
    80002a9e:	853e                	mv	a0,a5
    80002aa0:	cf5ff0ef          	jal	ra,80002794 <set_pwm_control_register>
    80002aa4:	87aa                	mv	a5,a0
    80002aa6:	eb91                	bnez	a5,80002aba <pwm_start+0x72>
    80002aa8:	fdc42783          	lw	a5,-36(s0)
    80002aac:	85be                	mv	a1,a5
    80002aae:	00002517          	auipc	a0,0x2
    80002ab2:	6c250513          	addi	a0,a0,1730 # 80005170 <__rodata_start+0xf20>
    80002ab6:	98efe0ef          	jal	ra,80000c44 <log_error>
    80002aba:	0001                	nop
    80002abc:	70a2                	ld	ra,40(sp)
    80002abe:	7402                	ld	s0,32(sp)
    80002ac0:	6145                	addi	sp,sp,48
    80002ac2:	8082                	ret

0000000080002ac4 <pwm_use_external_clock>:
    80002ac4:	7179                	addi	sp,sp,-48
    80002ac6:	f422                	sd	s0,40(sp)
    80002ac8:	1800                	addi	s0,sp,48
    80002aca:	87aa                	mv	a5,a0
    80002acc:	872e                	mv	a4,a1
    80002ace:	fcf42e23          	sw	a5,-36(s0)
    80002ad2:	87ba                	mv	a5,a4
    80002ad4:	fcf40da3          	sb	a5,-37(s0)
    80002ad8:	fdc42783          	lw	a5,-36(s0)
    80002adc:	3007879b          	addiw	a5,a5,768
    80002ae0:	2781                	sext.w	a5,a5
    80002ae2:	0087979b          	slliw	a5,a5,0x8
    80002ae6:	2781                	sext.w	a5,a5
    80002ae8:	27a1                	addiw	a5,a5,8
    80002aea:	2781                	sext.w	a5,a5
    80002aec:	fef43423          	sd	a5,-24(s0)
    80002af0:	fdb44783          	lbu	a5,-37(s0)
    80002af4:	0ff7f793          	andi	a5,a5,255
    80002af8:	c799                	beqz	a5,80002b06 <pwm_use_external_clock+0x42>
    80002afa:	fe843783          	ld	a5,-24(s0)
    80002afe:	0785                	addi	a5,a5,1
    80002b00:	fef43423          	sd	a5,-24(s0)
    80002b04:	a809                	j	80002b16 <pwm_use_external_clock+0x52>
    80002b06:	fe843783          	ld	a5,-24(s0)
    80002b0a:	c791                	beqz	a5,80002b16 <pwm_use_external_clock+0x52>
    80002b0c:	fe843783          	ld	a5,-24(s0)
    80002b10:	17fd                	addi	a5,a5,-1
    80002b12:	fef43423          	sd	a5,-24(s0)
    80002b16:	0001                	nop
    80002b18:	7422                	ld	s0,40(sp)
    80002b1a:	6145                	addi	sp,sp,48
    80002b1c:	8082                	ret

0000000080002b1e <pwm_set_clock>:
    80002b1e:	1101                	addi	sp,sp,-32
    80002b20:	ec06                	sd	ra,24(sp)
    80002b22:	e822                	sd	s0,16(sp)
    80002b24:	1000                	addi	s0,sp,32
    80002b26:	87aa                	mv	a5,a0
    80002b28:	872e                	mv	a4,a1
    80002b2a:	fef42623          	sw	a5,-20(s0)
    80002b2e:	87ba                	mv	a5,a4
    80002b30:	fef42423          	sw	a5,-24(s0)
    80002b34:	fe842703          	lw	a4,-24(s0)
    80002b38:	fec42783          	lw	a5,-20(s0)
    80002b3c:	85ba                	mv	a1,a4
    80002b3e:	853e                	mv	a0,a5
    80002b40:	d4fff0ef          	jal	ra,8000288e <set_pwm_clock_register>
    80002b44:	87aa                	mv	a5,a0
    80002b46:	e799                	bnez	a5,80002b54 <pwm_set_clock+0x36>
    80002b48:	00002517          	auipc	a0,0x2
    80002b4c:	65050513          	addi	a0,a0,1616 # 80005198 <__rodata_start+0xf48>
    80002b50:	8f4fe0ef          	jal	ra,80000c44 <log_error>
    80002b54:	0001                	nop
    80002b56:	60e2                	ld	ra,24(sp)
    80002b58:	6442                	ld	s0,16(sp)
    80002b5a:	6105                	addi	sp,sp,32
    80002b5c:	8082                	ret

0000000080002b5e <pwm_set_duty_cycle>:
    80002b5e:	1101                	addi	sp,sp,-32
    80002b60:	ec06                	sd	ra,24(sp)
    80002b62:	e822                	sd	s0,16(sp)
    80002b64:	1000                	addi	s0,sp,32
    80002b66:	87aa                	mv	a5,a0
    80002b68:	872e                	mv	a4,a1
    80002b6a:	fef42623          	sw	a5,-20(s0)
    80002b6e:	87ba                	mv	a5,a4
    80002b70:	fef42423          	sw	a5,-24(s0)
    80002b74:	fe842703          	lw	a4,-24(s0)
    80002b78:	fec42783          	lw	a5,-20(s0)
    80002b7c:	85ba                	mv	a1,a4
    80002b7e:	853e                	mv	a0,a5
    80002b80:	b8bff0ef          	jal	ra,8000270a <set_pwm_duty_register>
    80002b84:	87aa                	mv	a5,a0
    80002b86:	e799                	bnez	a5,80002b94 <pwm_set_duty_cycle+0x36>
    80002b88:	00002517          	auipc	a0,0x2
    80002b8c:	63850513          	addi	a0,a0,1592 # 800051c0 <__rodata_start+0xf70>
    80002b90:	8b4fe0ef          	jal	ra,80000c44 <log_error>
    80002b94:	0001                	nop
    80002b96:	60e2                	ld	ra,24(sp)
    80002b98:	6442                	ld	s0,16(sp)
    80002b9a:	6105                	addi	sp,sp,32
    80002b9c:	8082                	ret

0000000080002b9e <pwm_set_periodic_cycle>:
    80002b9e:	1101                	addi	sp,sp,-32
    80002ba0:	ec06                	sd	ra,24(sp)
    80002ba2:	e822                	sd	s0,16(sp)
    80002ba4:	1000                	addi	s0,sp,32
    80002ba6:	87aa                	mv	a5,a0
    80002ba8:	872e                	mv	a4,a1
    80002baa:	fef42623          	sw	a5,-20(s0)
    80002bae:	87ba                	mv	a5,a4
    80002bb0:	fef42423          	sw	a5,-24(s0)
    80002bb4:	fe842703          	lw	a4,-24(s0)
    80002bb8:	fec42783          	lw	a5,-20(s0)
    80002bbc:	85ba                	mv	a1,a4
    80002bbe:	853e                	mv	a0,a5
    80002bc0:	ac5ff0ef          	jal	ra,80002684 <set_pwm_period_register>
    80002bc4:	87aa                	mv	a5,a0
    80002bc6:	e799                	bnez	a5,80002bd4 <pwm_set_periodic_cycle+0x36>
    80002bc8:	00002517          	auipc	a0,0x2
    80002bcc:	62050513          	addi	a0,a0,1568 # 800051e8 <__rodata_start+0xf98>
    80002bd0:	874fe0ef          	jal	ra,80000c44 <log_error>
    80002bd4:	0001                	nop
    80002bd6:	60e2                	ld	ra,24(sp)
    80002bd8:	6442                	ld	s0,16(sp)
    80002bda:	6105                	addi	sp,sp,32
    80002bdc:	8082                	ret

0000000080002bde <pwm_configure>:
    80002bde:	7179                	addi	sp,sp,-48
    80002be0:	f406                	sd	ra,40(sp)
    80002be2:	f022                	sd	s0,32(sp)
    80002be4:	1800                	addi	s0,sp,48
    80002be6:	87aa                	mv	a5,a0
    80002be8:	fef42623          	sw	a5,-20(s0)
    80002bec:	87ae                	mv	a5,a1
    80002bee:	fef42423          	sw	a5,-24(s0)
    80002bf2:	87b2                	mv	a5,a2
    80002bf4:	fef42223          	sw	a5,-28(s0)
    80002bf8:	87b6                	mv	a5,a3
    80002bfa:	fef42023          	sw	a5,-32(s0)
    80002bfe:	87ba                	mv	a5,a4
    80002c00:	fcf40fa3          	sb	a5,-33(s0)
    80002c04:	fe442703          	lw	a4,-28(s0)
    80002c08:	fec42783          	lw	a5,-20(s0)
    80002c0c:	85ba                	mv	a1,a4
    80002c0e:	853e                	mv	a0,a5
    80002c10:	f8fff0ef          	jal	ra,80002b9e <pwm_set_periodic_cycle>
    80002c14:	fe042703          	lw	a4,-32(s0)
    80002c18:	fec42783          	lw	a5,-20(s0)
    80002c1c:	85ba                	mv	a1,a4
    80002c1e:	853e                	mv	a0,a5
    80002c20:	f3fff0ef          	jal	ra,80002b5e <pwm_set_duty_cycle>
    80002c24:	fe842703          	lw	a4,-24(s0)
    80002c28:	fec42783          	lw	a5,-20(s0)
    80002c2c:	85ba                	mv	a1,a4
    80002c2e:	853e                	mv	a0,a5
    80002c30:	eefff0ef          	jal	ra,80002b1e <pwm_set_clock>
    80002c34:	fdf44703          	lbu	a4,-33(s0)
    80002c38:	fec42783          	lw	a5,-20(s0)
    80002c3c:	85ba                	mv	a1,a4
    80002c3e:	853e                	mv	a0,a5
    80002c40:	e85ff0ef          	jal	ra,80002ac4 <pwm_use_external_clock>
    80002c44:	fec42783          	lw	a5,-20(s0)
    80002c48:	85be                	mv	a1,a5
    80002c4a:	00002517          	auipc	a0,0x2
    80002c4e:	5c650513          	addi	a0,a0,1478 # 80005210 <__rodata_start+0xfc0>
    80002c52:	f3bfd0ef          	jal	ra,80000b8c <log_info>
    80002c56:	0001                	nop
    80002c58:	70a2                	ld	ra,40(sp)
    80002c5a:	7402                	ld	s0,32(sp)
    80002c5c:	6145                	addi	sp,sp,48
    80002c5e:	8082                	ret

0000000080002c60 <pwm_stop>:
    80002c60:	1101                	addi	sp,sp,-32
    80002c62:	ec06                	sd	ra,24(sp)
    80002c64:	e822                	sd	s0,16(sp)
    80002c66:	1000                	addi	s0,sp,32
    80002c68:	87aa                	mv	a5,a0
    80002c6a:	fef42623          	sw	a5,-20(s0)
    80002c6e:	fec42783          	lw	a5,-20(s0)
    80002c72:	4581                	li	a1,0
    80002c74:	853e                	mv	a0,a5
    80002c76:	b1fff0ef          	jal	ra,80002794 <set_pwm_control_register>
    80002c7a:	fec42783          	lw	a5,-20(s0)
    80002c7e:	85be                	mv	a1,a5
    80002c80:	00002517          	auipc	a0,0x2
    80002c84:	5b050513          	addi	a0,a0,1456 # 80005230 <__rodata_start+0xfe0>
    80002c88:	f05fd0ef          	jal	ra,80000b8c <log_info>
    80002c8c:	0001                	nop
    80002c8e:	60e2                	ld	ra,24(sp)
    80002c90:	6442                	ld	s0,16(sp)
    80002c92:	6105                	addi	sp,sp,32
    80002c94:	8082                	ret

0000000080002c96 <show_register_values>:
    80002c96:	7139                	addi	sp,sp,-64
    80002c98:	fc06                	sd	ra,56(sp)
    80002c9a:	f822                	sd	s0,48(sp)
    80002c9c:	0080                	addi	s0,sp,64
    80002c9e:	87aa                	mv	a5,a0
    80002ca0:	fcf42623          	sw	a5,-52(s0)
    80002ca4:	fcc42783          	lw	a5,-52(s0)
    80002ca8:	3007879b          	addiw	a5,a5,768
    80002cac:	2781                	sext.w	a5,a5
    80002cae:	0087979b          	slliw	a5,a5,0x8
    80002cb2:	2781                	sext.w	a5,a5
    80002cb4:	fef43423          	sd	a5,-24(s0)
    80002cb8:	fcc42783          	lw	a5,-52(s0)
    80002cbc:	3007879b          	addiw	a5,a5,768
    80002cc0:	2781                	sext.w	a5,a5
    80002cc2:	0087979b          	slliw	a5,a5,0x8
    80002cc6:	2781                	sext.w	a5,a5
    80002cc8:	2791                	addiw	a5,a5,4
    80002cca:	2781                	sext.w	a5,a5
    80002ccc:	fef43023          	sd	a5,-32(s0)
    80002cd0:	fcc42783          	lw	a5,-52(s0)
    80002cd4:	3007879b          	addiw	a5,a5,768
    80002cd8:	2781                	sext.w	a5,a5
    80002cda:	0087979b          	slliw	a5,a5,0x8
    80002cde:	2781                	sext.w	a5,a5
    80002ce0:	27a1                	addiw	a5,a5,8
    80002ce2:	2781                	sext.w	a5,a5
    80002ce4:	fcf43c23          	sd	a5,-40(s0)
    80002ce8:	fcc42783          	lw	a5,-52(s0)
    80002cec:	3007879b          	addiw	a5,a5,768
    80002cf0:	2781                	sext.w	a5,a5
    80002cf2:	0087979b          	slliw	a5,a5,0x8
    80002cf6:	2781                	sext.w	a5,a5
    80002cf8:	27b1                	addiw	a5,a5,12
    80002cfa:	2781                	sext.w	a5,a5
    80002cfc:	fcf43823          	sd	a5,-48(s0)
    80002d00:	fe843783          	ld	a5,-24(s0)
    80002d04:	0007d783          	lhu	a5,0(a5)
    80002d08:	17c2                	slli	a5,a5,0x30
    80002d0a:	93c1                	srli	a5,a5,0x30
    80002d0c:	2781                	sext.w	a5,a5
    80002d0e:	85be                	mv	a1,a5
    80002d10:	00002517          	auipc	a0,0x2
    80002d14:	54850513          	addi	a0,a0,1352 # 80005258 <__rodata_start+0x1008>
    80002d18:	e75fd0ef          	jal	ra,80000b8c <log_info>
    80002d1c:	fe043783          	ld	a5,-32(s0)
    80002d20:	0007d783          	lhu	a5,0(a5)
    80002d24:	17c2                	slli	a5,a5,0x30
    80002d26:	93c1                	srli	a5,a5,0x30
    80002d28:	2781                	sext.w	a5,a5
    80002d2a:	85be                	mv	a1,a5
    80002d2c:	00002517          	auipc	a0,0x2
    80002d30:	55450513          	addi	a0,a0,1364 # 80005280 <__rodata_start+0x1030>
    80002d34:	e59fd0ef          	jal	ra,80000b8c <log_info>
    80002d38:	fd843783          	ld	a5,-40(s0)
    80002d3c:	0007c783          	lbu	a5,0(a5)
    80002d40:	0ff7f793          	andi	a5,a5,255
    80002d44:	2781                	sext.w	a5,a5
    80002d46:	85be                	mv	a1,a5
    80002d48:	00002517          	auipc	a0,0x2
    80002d4c:	56050513          	addi	a0,a0,1376 # 800052a8 <__rodata_start+0x1058>
    80002d50:	e3dfd0ef          	jal	ra,80000b8c <log_info>
    80002d54:	fd043783          	ld	a5,-48(s0)
    80002d58:	0007d783          	lhu	a5,0(a5)
    80002d5c:	17c2                	slli	a5,a5,0x30
    80002d5e:	93c1                	srli	a5,a5,0x30
    80002d60:	2781                	sext.w	a5,a5
    80002d62:	85be                	mv	a1,a5
    80002d64:	00002517          	auipc	a0,0x2
    80002d68:	56c50513          	addi	a0,a0,1388 # 800052d0 <__rodata_start+0x1080>
    80002d6c:	e21fd0ef          	jal	ra,80000b8c <log_info>
    80002d70:	0001                	nop
    80002d72:	70e2                	ld	ra,56(sp)
    80002d74:	7442                	ld	s0,48(sp)
    80002d76:	6121                	addi	sp,sp,64
    80002d78:	8082                	ret

0000000080002d7a <__adddf3>:
    80002d7a:	1101                	addi	sp,sp,-32
    80002d7c:	587d                	li	a6,-1
    80002d7e:	00c85713          	srli	a4,a6,0xc
    80002d82:	0345d613          	srli	a2,a1,0x34
    80002d86:	e822                	sd	s0,16(sp)
    80002d88:	03455413          	srli	s0,a0,0x34
    80002d8c:	00a777b3          	and	a5,a4,a0
    80002d90:	e426                	sd	s1,8(sp)
    80002d92:	8f6d                	and	a4,a4,a1
    80002d94:	7ff47413          	andi	s0,s0,2047
    80002d98:	7ff67613          	andi	a2,a2,2047
    80002d9c:	ec06                	sd	ra,24(sp)
    80002d9e:	e04a                	sd	s2,0(sp)
    80002da0:	03f55493          	srli	s1,a0,0x3f
    80002da4:	91fd                	srli	a1,a1,0x3f
    80002da6:	078e                	slli	a5,a5,0x3
    80002da8:	070e                	slli	a4,a4,0x3
    80002daa:	40c406bb          	subw	a3,s0,a2
    80002dae:	12b49c63          	bne	s1,a1,80002ee6 <__adddf3+0x16c>
    80002db2:	0006859b          	sext.w	a1,a3
    80002db6:	08b05463          	blez	a1,80002e3e <__adddf3+0xc4>
    80002dba:	ea21                	bnez	a2,80002e0a <__adddf3+0x90>
    80002dbc:	cf05                	beqz	a4,80002df4 <__adddf3+0x7a>
    80002dbe:	fff6859b          	addiw	a1,a3,-1
    80002dc2:	e58d                	bnez	a1,80002dec <__adddf3+0x72>
    80002dc4:	97ba                	add	a5,a5,a4
    80002dc6:	00879713          	slli	a4,a5,0x8
    80002dca:	02075563          	bgez	a4,80002df4 <__adddf3+0x7a>
    80002dce:	0405                	addi	s0,s0,1
    80002dd0:	7ff00713          	li	a4,2047
    80002dd4:	28e40463          	beq	s0,a4,8000305c <__adddf3+0x2e2>
    80002dd8:	1ff00713          	li	a4,511
    80002ddc:	175a                	slli	a4,a4,0x36
    80002dde:	0017f693          	andi	a3,a5,1
    80002de2:	177d                	addi	a4,a4,-1
    80002de4:	8385                	srli	a5,a5,0x1
    80002de6:	8ff9                	and	a5,a5,a4
    80002de8:	8fd5                	or	a5,a5,a3
    80002dea:	a029                	j	80002df4 <__adddf3+0x7a>
    80002dec:	7ff00693          	li	a3,2047
    80002df0:	02d41463          	bne	s0,a3,80002e18 <__adddf3+0x9e>
    80002df4:	0077f713          	andi	a4,a5,7
    80002df8:	26070363          	beqz	a4,8000305e <__adddf3+0x2e4>
    80002dfc:	00f7f713          	andi	a4,a5,15
    80002e00:	4691                	li	a3,4
    80002e02:	24d70e63          	beq	a4,a3,8000305e <__adddf3+0x2e4>
    80002e06:	0791                	addi	a5,a5,4
    80002e08:	ac99                	j	8000305e <__adddf3+0x2e4>
    80002e0a:	7ff00693          	li	a3,2047
    80002e0e:	fed403e3          	beq	s0,a3,80002df4 <__adddf3+0x7a>
    80002e12:	4685                	li	a3,1
    80002e14:	16de                	slli	a3,a3,0x37
    80002e16:	8f55                	or	a4,a4,a3
    80002e18:	03800613          	li	a2,56
    80002e1c:	4685                	li	a3,1
    80002e1e:	00b64e63          	blt	a2,a1,80002e3a <__adddf3+0xc0>
    80002e22:	04000693          	li	a3,64
    80002e26:	00b75633          	srl	a2,a4,a1
    80002e2a:	40b685bb          	subw	a1,a3,a1
    80002e2e:	00b71733          	sll	a4,a4,a1
    80002e32:	00e03733          	snez	a4,a4
    80002e36:	00e666b3          	or	a3,a2,a4
    80002e3a:	97b6                	add	a5,a5,a3
    80002e3c:	b769                	j	80002dc6 <__adddf3+0x4c>
    80002e3e:	cdb1                	beqz	a1,80002e9a <__adddf3+0x120>
    80002e40:	e039                	bnez	s0,80002e86 <__adddf3+0x10c>
    80002e42:	20078463          	beqz	a5,8000304a <__adddf3+0x2d0>
    80002e46:	01059563          	bne	a1,a6,80002e50 <__adddf3+0xd6>
    80002e4a:	97ba                	add	a5,a5,a4
    80002e4c:	8432                	mv	s0,a2
    80002e4e:	bfa5                	j	80002dc6 <__adddf3+0x4c>
    80002e50:	7ff00593          	li	a1,2047
    80002e54:	20b60063          	beq	a2,a1,80003054 <__adddf3+0x2da>
    80002e58:	fff6c693          	not	a3,a3
    80002e5c:	2681                	sext.w	a3,a3
    80002e5e:	03800513          	li	a0,56
    80002e62:	4585                	li	a1,1
    80002e64:	00d54e63          	blt	a0,a3,80002e80 <__adddf3+0x106>
    80002e68:	04000593          	li	a1,64
    80002e6c:	00d7d533          	srl	a0,a5,a3
    80002e70:	40d586bb          	subw	a3,a1,a3
    80002e74:	00d797b3          	sll	a5,a5,a3
    80002e78:	00f037b3          	snez	a5,a5
    80002e7c:	00f565b3          	or	a1,a0,a5
    80002e80:	00e587b3          	add	a5,a1,a4
    80002e84:	b7e1                	j	80002e4c <__adddf3+0xd2>
    80002e86:	7ff00593          	li	a1,2047
    80002e8a:	1cb60563          	beq	a2,a1,80003054 <__adddf3+0x2da>
    80002e8e:	4585                	li	a1,1
    80002e90:	15de                	slli	a1,a1,0x37
    80002e92:	40d006bb          	negw	a3,a3
    80002e96:	8fcd                	or	a5,a5,a1
    80002e98:	b7d9                	j	80002e5e <__adddf3+0xe4>
    80002e9a:	00140693          	addi	a3,s0,1
    80002e9e:	7fe6f613          	andi	a2,a3,2046
    80002ea2:	ea15                	bnez	a2,80002ed6 <__adddf3+0x15c>
    80002ea4:	ec19                	bnez	s0,80002ec2 <__adddf3+0x148>
    80002ea6:	1a078563          	beqz	a5,80003050 <__adddf3+0x2d6>
    80002eaa:	d729                	beqz	a4,80002df4 <__adddf3+0x7a>
    80002eac:	97ba                	add	a5,a5,a4
    80002eae:	00879713          	slli	a4,a5,0x8
    80002eb2:	f40751e3          	bgez	a4,80002df4 <__adddf3+0x7a>
    80002eb6:	185e                	slli	a6,a6,0x37
    80002eb8:	187d                	addi	a6,a6,-1
    80002eba:	0107f7b3          	and	a5,a5,a6
    80002ebe:	4405                	li	s0,1
    80002ec0:	bf15                	j	80002df4 <__adddf3+0x7a>
    80002ec2:	18078963          	beqz	a5,80003054 <__adddf3+0x2da>
    80002ec6:	12070063          	beqz	a4,80002fe6 <__adddf3+0x26c>
    80002eca:	4785                	li	a5,1
    80002ecc:	4481                	li	s1,0
    80002ece:	17da                	slli	a5,a5,0x36
    80002ed0:	7ff00413          	li	s0,2047
    80002ed4:	a269                	j	8000305e <__adddf3+0x2e4>
    80002ed6:	7ff00613          	li	a2,2047
    80002eda:	16c68f63          	beq	a3,a2,80003058 <__adddf3+0x2de>
    80002ede:	97ba                	add	a5,a5,a4
    80002ee0:	8385                	srli	a5,a5,0x1
    80002ee2:	8436                	mv	s0,a3
    80002ee4:	bf01                	j	80002df4 <__adddf3+0x7a>
    80002ee6:	0006851b          	sext.w	a0,a3
    80002eea:	04a05f63          	blez	a0,80002f48 <__adddf3+0x1ce>
    80002eee:	e629                	bnez	a2,80002f38 <__adddf3+0x1be>
    80002ef0:	d311                	beqz	a4,80002df4 <__adddf3+0x7a>
    80002ef2:	fff6851b          	addiw	a0,a3,-1
    80002ef6:	e911                	bnez	a0,80002f0a <__adddf3+0x190>
    80002ef8:	8f99                	sub	a5,a5,a4
    80002efa:	00879713          	slli	a4,a5,0x8
    80002efe:	ee075be3          	bgez	a4,80002df4 <__adddf3+0x7a>
    80002f02:	07a6                	slli	a5,a5,0x9
    80002f04:	0097d913          	srli	s2,a5,0x9
    80002f08:	a8dd                	j	80002ffe <__adddf3+0x284>
    80002f0a:	7ff00693          	li	a3,2047
    80002f0e:	eed403e3          	beq	s0,a3,80002df4 <__adddf3+0x7a>
    80002f12:	03800613          	li	a2,56
    80002f16:	4685                	li	a3,1
    80002f18:	00a64e63          	blt	a2,a0,80002f34 <__adddf3+0x1ba>
    80002f1c:	04000693          	li	a3,64
    80002f20:	00a75633          	srl	a2,a4,a0
    80002f24:	40a6853b          	subw	a0,a3,a0
    80002f28:	00a71733          	sll	a4,a4,a0
    80002f2c:	00e03733          	snez	a4,a4
    80002f30:	00e666b3          	or	a3,a2,a4
    80002f34:	8f95                	sub	a5,a5,a3
    80002f36:	b7d1                	j	80002efa <__adddf3+0x180>
    80002f38:	7ff00693          	li	a3,2047
    80002f3c:	ead40ce3          	beq	s0,a3,80002df4 <__adddf3+0x7a>
    80002f40:	4685                	li	a3,1
    80002f42:	16de                	slli	a3,a3,0x37
    80002f44:	8f55                	or	a4,a4,a3
    80002f46:	b7f1                	j	80002f12 <__adddf3+0x198>
    80002f48:	c125                	beqz	a0,80002fa8 <__adddf3+0x22e>
    80002f4a:	e429                	bnez	s0,80002f94 <__adddf3+0x21a>
    80002f4c:	14078e63          	beqz	a5,800030a8 <__adddf3+0x32e>
    80002f50:	01051763          	bne	a0,a6,80002f5e <__adddf3+0x1e4>
    80002f54:	40f707b3          	sub	a5,a4,a5
    80002f58:	8432                	mv	s0,a2
    80002f5a:	84ae                	mv	s1,a1
    80002f5c:	bf79                	j	80002efa <__adddf3+0x180>
    80002f5e:	7ff00513          	li	a0,2047
    80002f62:	14a60763          	beq	a2,a0,800030b0 <__adddf3+0x336>
    80002f66:	fff6c693          	not	a3,a3
    80002f6a:	2681                	sext.w	a3,a3
    80002f6c:	03800813          	li	a6,56
    80002f70:	4505                	li	a0,1
    80002f72:	00d84e63          	blt	a6,a3,80002f8e <__adddf3+0x214>
    80002f76:	04000513          	li	a0,64
    80002f7a:	00d7d833          	srl	a6,a5,a3
    80002f7e:	40d506bb          	subw	a3,a0,a3
    80002f82:	00d797b3          	sll	a5,a5,a3
    80002f86:	00f037b3          	snez	a5,a5
    80002f8a:	00f86533          	or	a0,a6,a5
    80002f8e:	40a707b3          	sub	a5,a4,a0
    80002f92:	b7d9                	j	80002f58 <__adddf3+0x1de>
    80002f94:	7ff00513          	li	a0,2047
    80002f98:	10a60c63          	beq	a2,a0,800030b0 <__adddf3+0x336>
    80002f9c:	4505                	li	a0,1
    80002f9e:	155e                	slli	a0,a0,0x37
    80002fa0:	40d006bb          	negw	a3,a3
    80002fa4:	8fc9                	or	a5,a5,a0
    80002fa6:	b7d9                	j	80002f6c <__adddf3+0x1f2>
    80002fa8:	00140693          	addi	a3,s0,1
    80002fac:	7fe6f693          	andi	a3,a3,2046
    80002fb0:	ee95                	bnez	a3,80002fec <__adddf3+0x272>
    80002fb2:	e405                	bnez	s0,80002fda <__adddf3+0x260>
    80002fb4:	e791                	bnez	a5,80002fc0 <__adddf3+0x246>
    80002fb6:	87ba                	mv	a5,a4
    80002fb8:	eb75                	bnez	a4,800030ac <__adddf3+0x332>
    80002fba:	4781                	li	a5,0
    80002fbc:	4481                	li	s1,0
    80002fbe:	a045                	j	8000305e <__adddf3+0x2e4>
    80002fc0:	e2070ae3          	beqz	a4,80002df4 <__adddf3+0x7a>
    80002fc4:	40e786b3          	sub	a3,a5,a4
    80002fc8:	00869613          	slli	a2,a3,0x8
    80002fcc:	40f707b3          	sub	a5,a4,a5
    80002fd0:	0c064e63          	bltz	a2,800030ac <__adddf3+0x332>
    80002fd4:	d2fd                	beqz	a3,80002fba <__adddf3+0x240>
    80002fd6:	87b6                	mv	a5,a3
    80002fd8:	bd31                	j	80002df4 <__adddf3+0x7a>
    80002fda:	ee0796e3          	bnez	a5,80002ec6 <__adddf3+0x14c>
    80002fde:	ee0706e3          	beqz	a4,80002eca <__adddf3+0x150>
    80002fe2:	87ba                	mv	a5,a4
    80002fe4:	84ae                	mv	s1,a1
    80002fe6:	7ff00413          	li	s0,2047
    80002fea:	b529                	j	80002df4 <__adddf3+0x7a>
    80002fec:	40e78933          	sub	s2,a5,a4
    80002ff0:	00891693          	slli	a3,s2,0x8
    80002ff4:	0206df63          	bgez	a3,80003032 <__adddf3+0x2b8>
    80002ff8:	40f70933          	sub	s2,a4,a5
    80002ffc:	84ae                	mv	s1,a1
    80002ffe:	854a                	mv	a0,s2
    80003000:	223000ef          	jal	ra,80003a22 <__clzdi2>
    80003004:	ff85079b          	addiw	a5,a0,-8
    80003008:	00f91933          	sll	s2,s2,a5
    8000300c:	0287c863          	blt	a5,s0,8000303c <__adddf3+0x2c2>
    80003010:	4087853b          	subw	a0,a5,s0
    80003014:	2505                	addiw	a0,a0,1
    80003016:	04000413          	li	s0,64
    8000301a:	00a957b3          	srl	a5,s2,a0
    8000301e:	40a4053b          	subw	a0,s0,a0
    80003022:	00a91933          	sll	s2,s2,a0
    80003026:	01203933          	snez	s2,s2
    8000302a:	0127e7b3          	or	a5,a5,s2
    8000302e:	4401                	li	s0,0
    80003030:	b3d1                	j	80002df4 <__adddf3+0x7a>
    80003032:	fc0916e3          	bnez	s2,80002ffe <__adddf3+0x284>
    80003036:	4781                	li	a5,0
    80003038:	4401                	li	s0,0
    8000303a:	b749                	j	80002fbc <__adddf3+0x242>
    8000303c:	8c1d                	sub	s0,s0,a5
    8000303e:	57fd                	li	a5,-1
    80003040:	17de                	slli	a5,a5,0x37
    80003042:	17fd                	addi	a5,a5,-1
    80003044:	00f977b3          	and	a5,s2,a5
    80003048:	b375                	j	80002df4 <__adddf3+0x7a>
    8000304a:	87ba                	mv	a5,a4
    8000304c:	8432                	mv	s0,a2
    8000304e:	b35d                	j	80002df4 <__adddf3+0x7a>
    80003050:	87ba                	mv	a5,a4
    80003052:	b34d                	j	80002df4 <__adddf3+0x7a>
    80003054:	87ba                	mv	a5,a4
    80003056:	bf41                	j	80002fe6 <__adddf3+0x26c>
    80003058:	7ff00413          	li	s0,2047
    8000305c:	4781                	li	a5,0
    8000305e:	00879713          	slli	a4,a5,0x8
    80003062:	00075b63          	bgez	a4,80003078 <__adddf3+0x2fe>
    80003066:	0405                	addi	s0,s0,1
    80003068:	7ff00713          	li	a4,2047
    8000306c:	04e40663          	beq	s0,a4,800030b8 <__adddf3+0x33e>
    80003070:	577d                	li	a4,-1
    80003072:	175e                	slli	a4,a4,0x37
    80003074:	177d                	addi	a4,a4,-1
    80003076:	8ff9                	and	a5,a5,a4
    80003078:	7ff00713          	li	a4,2047
    8000307c:	838d                	srli	a5,a5,0x3
    8000307e:	00e41663          	bne	s0,a4,8000308a <__adddf3+0x310>
    80003082:	c781                	beqz	a5,8000308a <__adddf3+0x310>
    80003084:	4785                	li	a5,1
    80003086:	17ce                	slli	a5,a5,0x33
    80003088:	4481                	li	s1,0
    8000308a:	7ff47413          	andi	s0,s0,2047
    8000308e:	07b2                	slli	a5,a5,0xc
    80003090:	1452                	slli	s0,s0,0x34
    80003092:	83b1                	srli	a5,a5,0xc
    80003094:	60e2                	ld	ra,24(sp)
    80003096:	8fc1                	or	a5,a5,s0
    80003098:	6442                	ld	s0,16(sp)
    8000309a:	03f49513          	slli	a0,s1,0x3f
    8000309e:	6902                	ld	s2,0(sp)
    800030a0:	64a2                	ld	s1,8(sp)
    800030a2:	8d5d                	or	a0,a0,a5
    800030a4:	6105                	addi	sp,sp,32
    800030a6:	8082                	ret
    800030a8:	87ba                	mv	a5,a4
    800030aa:	8432                	mv	s0,a2
    800030ac:	84ae                	mv	s1,a1
    800030ae:	b399                	j	80002df4 <__adddf3+0x7a>
    800030b0:	87ba                	mv	a5,a4
    800030b2:	7ff00413          	li	s0,2047
    800030b6:	bfdd                	j	800030ac <__adddf3+0x332>
    800030b8:	4781                	li	a5,0
    800030ba:	bf7d                	j	80003078 <__adddf3+0x2fe>

00000000800030bc <__eqsf2>:
    800030bc:	008007b7          	lui	a5,0x800
    800030c0:	17fd                	addi	a5,a5,-1
    800030c2:	00a7f6b3          	and	a3,a5,a0
    800030c6:	0175561b          	srliw	a2,a0,0x17
    800030ca:	8fed                	and	a5,a5,a1
    800030cc:	0175d81b          	srliw	a6,a1,0x17
    800030d0:	1682                	slli	a3,a3,0x20
    800030d2:	01f5571b          	srliw	a4,a0,0x1f
    800030d6:	1782                	slli	a5,a5,0x20
    800030d8:	0ff67613          	andi	a2,a2,255
    800030dc:	0ff00513          	li	a0,255
    800030e0:	9281                	srli	a3,a3,0x20
    800030e2:	9381                	srli	a5,a5,0x20
    800030e4:	0ff87813          	andi	a6,a6,255
    800030e8:	01f5d59b          	srliw	a1,a1,0x1f
    800030ec:	00a61463          	bne	a2,a0,800030f4 <__eqsf2+0x38>
    800030f0:	4505                	li	a0,1
    800030f2:	e29d                	bnez	a3,80003118 <__eqsf2+0x5c>
    800030f4:	0ff00513          	li	a0,255
    800030f8:	00a81463          	bne	a6,a0,80003100 <__eqsf2+0x44>
    800030fc:	4505                	li	a0,1
    800030fe:	ef89                	bnez	a5,80003118 <__eqsf2+0x5c>
    80003100:	4505                	li	a0,1
    80003102:	01061b63          	bne	a2,a6,80003118 <__eqsf2+0x5c>
    80003106:	00f69963          	bne	a3,a5,80003118 <__eqsf2+0x5c>
    8000310a:	00b70663          	beq	a4,a1,80003116 <__eqsf2+0x5a>
    8000310e:	e609                	bnez	a2,80003118 <__eqsf2+0x5c>
    80003110:	00d03533          	snez	a0,a3
    80003114:	8082                	ret
    80003116:	4501                	li	a0,0
    80003118:	8082                	ret

000000008000311a <__lesf2>:
    8000311a:	008007b7          	lui	a5,0x800
    8000311e:	17fd                	addi	a5,a5,-1
    80003120:	00a7f6b3          	and	a3,a5,a0
    80003124:	0175561b          	srliw	a2,a0,0x17
    80003128:	8fed                	and	a5,a5,a1
    8000312a:	0175d71b          	srliw	a4,a1,0x17
    8000312e:	1682                	slli	a3,a3,0x20
    80003130:	1782                	slli	a5,a5,0x20
    80003132:	0ff67613          	andi	a2,a2,255
    80003136:	0ff00813          	li	a6,255
    8000313a:	9281                	srli	a3,a3,0x20
    8000313c:	01f5551b          	srliw	a0,a0,0x1f
    80003140:	9381                	srli	a5,a5,0x20
    80003142:	0ff77713          	andi	a4,a4,255
    80003146:	01f5d59b          	srliw	a1,a1,0x1f
    8000314a:	01061563          	bne	a2,a6,80003154 <__lesf2+0x3a>
    8000314e:	c2b9                	beqz	a3,80003194 <__lesf2+0x7a>
    80003150:	4509                	li	a0,2
    80003152:	8082                	ret
    80003154:	01071363          	bne	a4,a6,8000315a <__lesf2+0x40>
    80003158:	ffe5                	bnez	a5,80003150 <__lesf2+0x36>
    8000315a:	ee1d                	bnez	a2,80003198 <__lesf2+0x7e>
    8000315c:	e311                	bnez	a4,80003160 <__lesf2+0x46>
    8000315e:	cb8d                	beqz	a5,80003190 <__lesf2+0x76>
    80003160:	ca81                	beqz	a3,80003170 <__lesf2+0x56>
    80003162:	00b51463          	bne	a0,a1,8000316a <__lesf2+0x50>
    80003166:	00c75963          	bge	a4,a2,80003178 <__lesf2+0x5e>
    8000316a:	c10d                	beqz	a0,8000318c <__lesf2+0x72>
    8000316c:	557d                	li	a0,-1
    8000316e:	8082                	ret
    80003170:	557d                	li	a0,-1
    80003172:	c591                	beqz	a1,8000317e <__lesf2+0x64>
    80003174:	852e                	mv	a0,a1
    80003176:	8082                	ret
    80003178:	00e65463          	bge	a2,a4,80003180 <__lesf2+0x66>
    8000317c:	d965                	beqz	a0,8000316c <__lesf2+0x52>
    8000317e:	8082                	ret
    80003180:	fed7e5e3          	bltu	a5,a3,8000316a <__lesf2+0x50>
    80003184:	fef6ece3          	bltu	a3,a5,8000317c <__lesf2+0x62>
    80003188:	4501                	li	a0,0
    8000318a:	8082                	ret
    8000318c:	4505                	li	a0,1
    8000318e:	8082                	ret
    80003190:	dee5                	beqz	a3,80003188 <__lesf2+0x6e>
    80003192:	bfe1                	j	8000316a <__lesf2+0x50>
    80003194:	fcc702e3          	beq	a4,a2,80003158 <__lesf2+0x3e>
    80003198:	f769                	bnez	a4,80003162 <__lesf2+0x48>
    8000319a:	dbe1                	beqz	a5,8000316a <__lesf2+0x50>
    8000319c:	b7d9                	j	80003162 <__lesf2+0x48>

000000008000319e <__mulsf3>:
    8000319e:	7139                	addi	sp,sp,-64
    800031a0:	f426                	sd	s1,40(sp)
    800031a2:	0175549b          	srliw	s1,a0,0x17
    800031a6:	f822                	sd	s0,48(sp)
    800031a8:	f04a                	sd	s2,32(sp)
    800031aa:	ec4e                	sd	s3,24(sp)
    800031ac:	e852                	sd	s4,16(sp)
    800031ae:	02951413          	slli	s0,a0,0x29
    800031b2:	fc06                	sd	ra,56(sp)
    800031b4:	e456                	sd	s5,8(sp)
    800031b6:	0ff4f493          	andi	s1,s1,255
    800031ba:	8a2e                	mv	s4,a1
    800031bc:	02945993          	srli	s3,s0,0x29
    800031c0:	01f5591b          	srliw	s2,a0,0x1f
    800031c4:	c8a5                	beqz	s1,80003234 <__mulsf3+0x96>
    800031c6:	0ff00793          	li	a5,255
    800031ca:	08f48463          	beq	s1,a5,80003252 <__mulsf3+0xb4>
    800031ce:	00399413          	slli	s0,s3,0x3
    800031d2:	040007b7          	lui	a5,0x4000
    800031d6:	00f469b3          	or	s3,s0,a5
    800031da:	f8148493          	addi	s1,s1,-127
    800031de:	4a81                	li	s5,0
    800031e0:	017a579b          	srliw	a5,s4,0x17
    800031e4:	029a1413          	slli	s0,s4,0x29
    800031e8:	0ff7f793          	andi	a5,a5,255
    800031ec:	9025                	srli	s0,s0,0x29
    800031ee:	01fa5a1b          	srliw	s4,s4,0x1f
    800031f2:	cbb5                	beqz	a5,80003266 <__mulsf3+0xc8>
    800031f4:	0ff00713          	li	a4,255
    800031f8:	08e78563          	beq	a5,a4,80003282 <__mulsf3+0xe4>
    800031fc:	040e                	slli	s0,s0,0x3
    800031fe:	04000737          	lui	a4,0x4000
    80003202:	8c59                	or	s0,s0,a4
    80003204:	f8178793          	addi	a5,a5,-127 # 3ffff81 <_HEAP_SIZE+0x6851>
    80003208:	4701                	li	a4,0
    8000320a:	94be                	add	s1,s1,a5
    8000320c:	002a9793          	slli	a5,s5,0x2
    80003210:	8fd9                	or	a5,a5,a4
    80003212:	17fd                	addi	a5,a5,-1
    80003214:	4639                	li	a2,14
    80003216:	01494533          	xor	a0,s2,s4
    8000321a:	00148693          	addi	a3,s1,1
    8000321e:	06f66b63          	bltu	a2,a5,80003294 <__mulsf3+0xf6>
    80003222:	00002617          	auipc	a2,0x2
    80003226:	0d260613          	addi	a2,a2,210 # 800052f4 <__rodata_start+0x10a4>
    8000322a:	078a                	slli	a5,a5,0x2
    8000322c:	97b2                	add	a5,a5,a2
    8000322e:	439c                	lw	a5,0(a5)
    80003230:	97b2                	add	a5,a5,a2
    80003232:	8782                	jr	a5
    80003234:	02098663          	beqz	s3,80003260 <__mulsf3+0xc2>
    80003238:	854e                	mv	a0,s3
    8000323a:	7e8000ef          	jal	ra,80003a22 <__clzdi2>
    8000323e:	0005079b          	sext.w	a5,a0
    80003242:	faa00493          	li	s1,-86
    80003246:	fdb5051b          	addiw	a0,a0,-37
    8000324a:	00a999b3          	sll	s3,s3,a0
    8000324e:	8c9d                	sub	s1,s1,a5
    80003250:	b779                	j	800031de <__mulsf3+0x40>
    80003252:	0ff00493          	li	s1,255
    80003256:	4a89                	li	s5,2
    80003258:	f80984e3          	beqz	s3,800031e0 <__mulsf3+0x42>
    8000325c:	4a8d                	li	s5,3
    8000325e:	b749                	j	800031e0 <__mulsf3+0x42>
    80003260:	4481                	li	s1,0
    80003262:	4a85                	li	s5,1
    80003264:	bfb5                	j	800031e0 <__mulsf3+0x42>
    80003266:	c405                	beqz	s0,8000328e <__mulsf3+0xf0>
    80003268:	8522                	mv	a0,s0
    8000326a:	7b8000ef          	jal	ra,80003a22 <__clzdi2>
    8000326e:	0005071b          	sext.w	a4,a0
    80003272:	faa00793          	li	a5,-86
    80003276:	fdb5051b          	addiw	a0,a0,-37
    8000327a:	00a41433          	sll	s0,s0,a0
    8000327e:	8f99                	sub	a5,a5,a4
    80003280:	b761                	j	80003208 <__mulsf3+0x6a>
    80003282:	0ff00793          	li	a5,255
    80003286:	4709                	li	a4,2
    80003288:	d049                	beqz	s0,8000320a <__mulsf3+0x6c>
    8000328a:	470d                	li	a4,3
    8000328c:	bfbd                	j	8000320a <__mulsf3+0x6c>
    8000328e:	4781                	li	a5,0
    80003290:	4705                	li	a4,1
    80003292:	bfa5                	j	8000320a <__mulsf3+0x6c>
    80003294:	02898433          	mul	s0,s3,s0
    80003298:	01a45793          	srli	a5,s0,0x1a
    8000329c:	141a                	slli	s0,s0,0x26
    8000329e:	00803433          	snez	s0,s0
    800032a2:	02479713          	slli	a4,a5,0x24
    800032a6:	8c5d                	or	s0,s0,a5
    800032a8:	06075763          	bgez	a4,80003316 <__mulsf3+0x178>
    800032ac:	00145793          	srli	a5,s0,0x1
    800032b0:	8805                	andi	s0,s0,1
    800032b2:	8c5d                	or	s0,s0,a5
    800032b4:	07f68793          	addi	a5,a3,127
    800032b8:	06f05163          	blez	a5,8000331a <__mulsf3+0x17c>
    800032bc:	00747713          	andi	a4,s0,7
    800032c0:	c719                	beqz	a4,800032ce <__mulsf3+0x130>
    800032c2:	00f47713          	andi	a4,s0,15
    800032c6:	4611                	li	a2,4
    800032c8:	00c70363          	beq	a4,a2,800032ce <__mulsf3+0x130>
    800032cc:	0411                	addi	s0,s0,4
    800032ce:	02441713          	slli	a4,s0,0x24
    800032d2:	00075863          	bgez	a4,800032e2 <__mulsf3+0x144>
    800032d6:	f80007b7          	lui	a5,0xf8000
    800032da:	17fd                	addi	a5,a5,-1
    800032dc:	8c7d                	and	s0,s0,a5
    800032de:	08068793          	addi	a5,a3,128
    800032e2:	0fe00713          	li	a4,254
    800032e6:	800d                	srli	s0,s0,0x3
    800032e8:	06f75f63          	bge	a4,a5,80003366 <__mulsf3+0x1c8>
    800032ec:	4401                	li	s0,0
    800032ee:	0ff00793          	li	a5,255
    800032f2:	a895                	j	80003366 <__mulsf3+0x1c8>
    800032f4:	854a                	mv	a0,s2
    800032f6:	844e                	mv	s0,s3
    800032f8:	8756                	mv	a4,s5
    800032fa:	4789                	li	a5,2
    800032fc:	fef708e3          	beq	a4,a5,800032ec <__mulsf3+0x14e>
    80003300:	478d                	li	a5,3
    80003302:	04f70d63          	beq	a4,a5,8000335c <__mulsf3+0x1be>
    80003306:	4785                	li	a5,1
    80003308:	faf716e3          	bne	a4,a5,800032b4 <__mulsf3+0x116>
    8000330c:	4401                	li	s0,0
    8000330e:	4781                	li	a5,0
    80003310:	a899                	j	80003366 <__mulsf3+0x1c8>
    80003312:	8552                	mv	a0,s4
    80003314:	b7dd                	j	800032fa <__mulsf3+0x15c>
    80003316:	86a6                	mv	a3,s1
    80003318:	bf71                	j	800032b4 <__mulsf3+0x116>
    8000331a:	4705                	li	a4,1
    8000331c:	8f1d                	sub	a4,a4,a5
    8000331e:	47ed                	li	a5,27
    80003320:	fee7c6e3          	blt	a5,a4,8000330c <__mulsf3+0x16e>
    80003324:	04000693          	li	a3,64
    80003328:	00e457b3          	srl	a5,s0,a4
    8000332c:	40e6873b          	subw	a4,a3,a4
    80003330:	00e41433          	sll	s0,s0,a4
    80003334:	00803433          	snez	s0,s0
    80003338:	8c5d                	or	s0,s0,a5
    8000333a:	00747793          	andi	a5,s0,7
    8000333e:	c799                	beqz	a5,8000334c <__mulsf3+0x1ae>
    80003340:	00f47793          	andi	a5,s0,15
    80003344:	4711                	li	a4,4
    80003346:	00e78363          	beq	a5,a4,8000334c <__mulsf3+0x1ae>
    8000334a:	0411                	addi	s0,s0,4
    8000334c:	02541793          	slli	a5,s0,0x25
    80003350:	800d                	srli	s0,s0,0x3
    80003352:	fa07dee3          	bgez	a5,8000330e <__mulsf3+0x170>
    80003356:	4401                	li	s0,0
    80003358:	4785                	li	a5,1
    8000335a:	a031                	j	80003366 <__mulsf3+0x1c8>
    8000335c:	00400437          	lui	s0,0x400
    80003360:	0ff00793          	li	a5,255
    80003364:	4501                	li	a0,0
    80003366:	0ff7f793          	andi	a5,a5,255
    8000336a:	1426                	slli	s0,s0,0x29
    8000336c:	0177979b          	slliw	a5,a5,0x17
    80003370:	9025                	srli	s0,s0,0x29
    80003372:	8c5d                	or	s0,s0,a5
    80003374:	01f5151b          	slliw	a0,a0,0x1f
    80003378:	70e2                	ld	ra,56(sp)
    8000337a:	8d41                	or	a0,a0,s0
    8000337c:	7442                	ld	s0,48(sp)
    8000337e:	74a2                	ld	s1,40(sp)
    80003380:	7902                	ld	s2,32(sp)
    80003382:	69e2                	ld	s3,24(sp)
    80003384:	6a42                	ld	s4,16(sp)
    80003386:	6aa2                	ld	s5,8(sp)
    80003388:	6121                	addi	sp,sp,64
    8000338a:	8082                	ret

000000008000338c <__subsf3>:
    8000338c:	008006b7          	lui	a3,0x800
    80003390:	16fd                	addi	a3,a3,-1
    80003392:	00a6f7b3          	and	a5,a3,a0
    80003396:	8eed                	and	a3,a3,a1
    80003398:	1101                	addi	sp,sp,-32
    8000339a:	0175d89b          	srliw	a7,a1,0x17
    8000339e:	1782                	slli	a5,a5,0x20
    800033a0:	0175581b          	srliw	a6,a0,0x17
    800033a4:	1682                	slli	a3,a3,0x20
    800033a6:	e822                	sd	s0,16(sp)
    800033a8:	e04a                	sd	s2,0(sp)
    800033aa:	9381                	srli	a5,a5,0x20
    800033ac:	0ff87813          	andi	a6,a6,255
    800033b0:	9281                	srli	a3,a3,0x20
    800033b2:	0ff8f893          	andi	a7,a7,255
    800033b6:	ec06                	sd	ra,24(sp)
    800033b8:	e426                	sd	s1,8(sp)
    800033ba:	0ff00613          	li	a2,255
    800033be:	8942                	mv	s2,a6
    800033c0:	01f5541b          	srliw	s0,a0,0x1f
    800033c4:	078e                	slli	a5,a5,0x3
    800033c6:	8746                	mv	a4,a7
    800033c8:	01f5d59b          	srliw	a1,a1,0x1f
    800033cc:	068e                	slli	a3,a3,0x3
    800033ce:	00c89363          	bne	a7,a2,800033d4 <__subsf3+0x48>
    800033d2:	e299                	bnez	a3,800033d8 <__subsf3+0x4c>
    800033d4:	0015c593          	xori	a1,a1,1
    800033d8:	4118063b          	subw	a2,a6,a7
    800033dc:	0006051b          	sext.w	a0,a2
    800033e0:	12859d63          	bne	a1,s0,8000351a <__subsf3+0x18e>
    800033e4:	06a05d63          	blez	a0,8000345e <__subsf3+0xd2>
    800033e8:	04089263          	bnez	a7,8000342c <__subsf3+0xa0>
    800033ec:	28068c63          	beqz	a3,80003684 <__subsf3+0x2f8>
    800033f0:	fff6051b          	addiw	a0,a2,-1
    800033f4:	e50d                	bnez	a0,8000341e <__subsf3+0x92>
    800033f6:	97b6                	add	a5,a5,a3
    800033f8:	8742                	mv	a4,a6
    800033fa:	02579693          	slli	a3,a5,0x25
    800033fe:	0e06d263          	bgez	a3,800034e2 <__subsf3+0x156>
    80003402:	0705                	addi	a4,a4,1
    80003404:	0ff00693          	li	a3,255
    80003408:	28d70663          	beq	a4,a3,80003694 <__subsf3+0x308>
    8000340c:	fc0006b7          	lui	a3,0xfc000
    80003410:	16fd                	addi	a3,a3,-1
    80003412:	0017f613          	andi	a2,a5,1
    80003416:	8ff5                	and	a5,a5,a3
    80003418:	8385                	srli	a5,a5,0x1
    8000341a:	8fd1                	or	a5,a5,a2
    8000341c:	a0d9                	j	800034e2 <__subsf3+0x156>
    8000341e:	0ff00713          	li	a4,255
    80003422:	00e81c63          	bne	a6,a4,8000343a <__subsf3+0xae>
    80003426:	0ff00713          	li	a4,255
    8000342a:	a865                	j	800034e2 <__subsf3+0x156>
    8000342c:	0ff00713          	li	a4,255
    80003430:	fee80be3          	beq	a6,a4,80003426 <__subsf3+0x9a>
    80003434:	04000737          	lui	a4,0x4000
    80003438:	8ed9                	or	a3,a3,a4
    8000343a:	466d                	li	a2,27
    8000343c:	4705                	li	a4,1
    8000343e:	00a64e63          	blt	a2,a0,8000345a <__subsf3+0xce>
    80003442:	04000713          	li	a4,64
    80003446:	00a6d633          	srl	a2,a3,a0
    8000344a:	40a7053b          	subw	a0,a4,a0
    8000344e:	00a696b3          	sll	a3,a3,a0
    80003452:	00d036b3          	snez	a3,a3
    80003456:	00d66733          	or	a4,a2,a3
    8000345a:	97ba                	add	a5,a5,a4
    8000345c:	bf71                	j	800033f8 <__subsf3+0x6c>
    8000345e:	cd31                	beqz	a0,800034ba <__subsf3+0x12e>
    80003460:	04081363          	bnez	a6,800034a6 <__subsf3+0x11a>
    80003464:	22078263          	beqz	a5,80003688 <__subsf3+0x2fc>
    80003468:	55fd                	li	a1,-1
    8000346a:	00b51463          	bne	a0,a1,80003472 <__subsf3+0xe6>
    8000346e:	97b6                	add	a5,a5,a3
    80003470:	b769                	j	800033fa <__subsf3+0x6e>
    80003472:	0ff00593          	li	a1,255
    80003476:	20b88b63          	beq	a7,a1,8000368c <__subsf3+0x300>
    8000347a:	fff64613          	not	a2,a2
    8000347e:	2601                	sext.w	a2,a2
    80003480:	456d                	li	a0,27
    80003482:	4585                	li	a1,1
    80003484:	00c54e63          	blt	a0,a2,800034a0 <__subsf3+0x114>
    80003488:	04000593          	li	a1,64
    8000348c:	00c7d533          	srl	a0,a5,a2
    80003490:	40c5863b          	subw	a2,a1,a2
    80003494:	00c797b3          	sll	a5,a5,a2
    80003498:	00f037b3          	snez	a5,a5
    8000349c:	00f565b3          	or	a1,a0,a5
    800034a0:	00d587b3          	add	a5,a1,a3
    800034a4:	bf99                	j	800033fa <__subsf3+0x6e>
    800034a6:	0ff00593          	li	a1,255
    800034aa:	1eb88163          	beq	a7,a1,8000368c <__subsf3+0x300>
    800034ae:	040005b7          	lui	a1,0x4000
    800034b2:	40c0063b          	negw	a2,a2
    800034b6:	8fcd                	or	a5,a5,a1
    800034b8:	b7e1                	j	80003480 <__subsf3+0xf4>
    800034ba:	00180613          	addi	a2,a6,1
    800034be:	0fe67713          	andi	a4,a2,254
    800034c2:	e721                	bnez	a4,8000350a <__subsf3+0x17e>
    800034c4:	02081a63          	bnez	a6,800034f8 <__subsf3+0x16c>
    800034c8:	1c078063          	beqz	a5,80003688 <__subsf3+0x2fc>
    800034cc:	ca99                	beqz	a3,800034e2 <__subsf3+0x156>
    800034ce:	97b6                	add	a5,a5,a3
    800034d0:	02579693          	slli	a3,a5,0x25
    800034d4:	0006d763          	bgez	a3,800034e2 <__subsf3+0x156>
    800034d8:	fc000737          	lui	a4,0xfc000
    800034dc:	177d                	addi	a4,a4,-1
    800034de:	8ff9                	and	a5,a5,a4
    800034e0:	4705                	li	a4,1
    800034e2:	0077f693          	andi	a3,a5,7
    800034e6:	1a068863          	beqz	a3,80003696 <__subsf3+0x30a>
    800034ea:	00f7f693          	andi	a3,a5,15
    800034ee:	4611                	li	a2,4
    800034f0:	1ac68363          	beq	a3,a2,80003696 <__subsf3+0x30a>
    800034f4:	0791                	addi	a5,a5,4
    800034f6:	a245                	j	80003696 <__subsf3+0x30a>
    800034f8:	18078a63          	beqz	a5,8000368c <__subsf3+0x300>
    800034fc:	d68d                	beqz	a3,80003426 <__subsf3+0x9a>
    800034fe:	4401                	li	s0,0
    80003500:	020007b7          	lui	a5,0x2000
    80003504:	0ff00713          	li	a4,255
    80003508:	a279                	j	80003696 <__subsf3+0x30a>
    8000350a:	0ff00713          	li	a4,255
    8000350e:	18e60163          	beq	a2,a4,80003690 <__subsf3+0x304>
    80003512:	97b6                	add	a5,a5,a3
    80003514:	8385                	srli	a5,a5,0x1
    80003516:	8732                	mv	a4,a2
    80003518:	b7e9                	j	800034e2 <__subsf3+0x156>
    8000351a:	06a05763          	blez	a0,80003588 <__subsf3+0x1fc>
    8000351e:	04089b63          	bnez	a7,80003574 <__subsf3+0x1e8>
    80003522:	8742                	mv	a4,a6
    80003524:	dedd                	beqz	a3,800034e2 <__subsf3+0x156>
    80003526:	fff6051b          	addiw	a0,a2,-1
    8000352a:	ed01                	bnez	a0,80003542 <__subsf3+0x1b6>
    8000352c:	8f95                	sub	a5,a5,a3
    8000352e:	02579693          	slli	a3,a5,0x25
    80003532:	fa06d8e3          	bgez	a3,800034e2 <__subsf3+0x156>
    80003536:	040004b7          	lui	s1,0x4000
    8000353a:	14fd                	addi	s1,s1,-1
    8000353c:	8cfd                	and	s1,s1,a5
    8000353e:	893a                	mv	s2,a4
    80003540:	a8f5                	j	8000363c <__subsf3+0x2b0>
    80003542:	0ff00613          	li	a2,255
    80003546:	0ff00713          	li	a4,255
    8000354a:	f8c80ce3          	beq	a6,a2,800034e2 <__subsf3+0x156>
    8000354e:	466d                	li	a2,27
    80003550:	4705                	li	a4,1
    80003552:	00a64e63          	blt	a2,a0,8000356e <__subsf3+0x1e2>
    80003556:	04000713          	li	a4,64
    8000355a:	00a6d633          	srl	a2,a3,a0
    8000355e:	40a7053b          	subw	a0,a4,a0
    80003562:	00a696b3          	sll	a3,a3,a0
    80003566:	00d036b3          	snez	a3,a3
    8000356a:	00d66733          	or	a4,a2,a3
    8000356e:	8f99                	sub	a5,a5,a4
    80003570:	8742                	mv	a4,a6
    80003572:	bf75                	j	8000352e <__subsf3+0x1a2>
    80003574:	0ff00613          	li	a2,255
    80003578:	0ff00713          	li	a4,255
    8000357c:	f6c803e3          	beq	a6,a2,800034e2 <__subsf3+0x156>
    80003580:	04000737          	lui	a4,0x4000
    80003584:	8ed9                	or	a3,a3,a4
    80003586:	b7e1                	j	8000354e <__subsf3+0x1c2>
    80003588:	cd39                	beqz	a0,800035e6 <__subsf3+0x25a>
    8000358a:	04081463          	bnez	a6,800035d2 <__subsf3+0x246>
    8000358e:	c7ad                	beqz	a5,800035f8 <__subsf3+0x26c>
    80003590:	587d                	li	a6,-1
    80003592:	01051663          	bne	a0,a6,8000359e <__subsf3+0x212>
    80003596:	40f687b3          	sub	a5,a3,a5
    8000359a:	842e                	mv	s0,a1
    8000359c:	bf49                	j	8000352e <__subsf3+0x1a2>
    8000359e:	0ff00513          	li	a0,255
    800035a2:	08a88163          	beq	a7,a0,80003624 <__subsf3+0x298>
    800035a6:	fff64613          	not	a2,a2
    800035aa:	2601                	sext.w	a2,a2
    800035ac:	486d                	li	a6,27
    800035ae:	4505                	li	a0,1
    800035b0:	00c84e63          	blt	a6,a2,800035cc <__subsf3+0x240>
    800035b4:	04000513          	li	a0,64
    800035b8:	00c7d833          	srl	a6,a5,a2
    800035bc:	40c5063b          	subw	a2,a0,a2
    800035c0:	00c797b3          	sll	a5,a5,a2
    800035c4:	00f037b3          	snez	a5,a5
    800035c8:	00f86533          	or	a0,a6,a5
    800035cc:	40a687b3          	sub	a5,a3,a0
    800035d0:	b7e9                	j	8000359a <__subsf3+0x20e>
    800035d2:	0ff00513          	li	a0,255
    800035d6:	04a88763          	beq	a7,a0,80003624 <__subsf3+0x298>
    800035da:	04000537          	lui	a0,0x4000
    800035de:	40c0063b          	negw	a2,a2
    800035e2:	8fc9                	or	a5,a5,a0
    800035e4:	b7e1                	j	800035ac <__subsf3+0x220>
    800035e6:	00180713          	addi	a4,a6,1
    800035ea:	0fe77713          	andi	a4,a4,254
    800035ee:	ef15                	bnez	a4,8000362a <__subsf3+0x29e>
    800035f0:	02081663          	bnez	a6,8000361c <__subsf3+0x290>
    800035f4:	e781                	bnez	a5,800035fc <__subsf3+0x270>
    800035f6:	c285                	beqz	a3,80003616 <__subsf3+0x28a>
    800035f8:	87b6                	mv	a5,a3
    800035fa:	a819                	j	80003610 <__subsf3+0x284>
    800035fc:	ee0683e3          	beqz	a3,800034e2 <__subsf3+0x156>
    80003600:	40d78633          	sub	a2,a5,a3
    80003604:	02561513          	slli	a0,a2,0x25
    80003608:	00055663          	bgez	a0,80003614 <__subsf3+0x288>
    8000360c:	40f687b3          	sub	a5,a3,a5
    80003610:	842e                	mv	s0,a1
    80003612:	bdc1                	j	800034e2 <__subsf3+0x156>
    80003614:	e679                	bnez	a2,800036e2 <__subsf3+0x356>
    80003616:	4781                	li	a5,0
    80003618:	4401                	li	s0,0
    8000361a:	a8b5                	j	80003696 <__subsf3+0x30a>
    8000361c:	ee0790e3          	bnez	a5,800034fc <__subsf3+0x170>
    80003620:	ec068fe3          	beqz	a3,800034fe <__subsf3+0x172>
    80003624:	87b6                	mv	a5,a3
    80003626:	842e                	mv	s0,a1
    80003628:	bbfd                	j	80003426 <__subsf3+0x9a>
    8000362a:	40d784b3          	sub	s1,a5,a3
    8000362e:	02549713          	slli	a4,s1,0x25
    80003632:	02075e63          	bgez	a4,8000366e <__subsf3+0x2e2>
    80003636:	40f684b3          	sub	s1,a3,a5
    8000363a:	842e                	mv	s0,a1
    8000363c:	8526                	mv	a0,s1
    8000363e:	3e4000ef          	jal	ra,80003a22 <__clzdi2>
    80003642:	fdb5071b          	addiw	a4,a0,-37
    80003646:	00e494b3          	sll	s1,s1,a4
    8000364a:	03274663          	blt	a4,s2,80003676 <__subsf3+0x2ea>
    8000364e:	4127053b          	subw	a0,a4,s2
    80003652:	2505                	addiw	a0,a0,1
    80003654:	04000713          	li	a4,64
    80003658:	00a4d7b3          	srl	a5,s1,a0
    8000365c:	40a7053b          	subw	a0,a4,a0
    80003660:	00a494b3          	sll	s1,s1,a0
    80003664:	009034b3          	snez	s1,s1
    80003668:	8fc5                	or	a5,a5,s1
    8000366a:	4701                	li	a4,0
    8000366c:	bd9d                	j	800034e2 <__subsf3+0x156>
    8000366e:	f4f9                	bnez	s1,8000363c <__subsf3+0x2b0>
    80003670:	4781                	li	a5,0
    80003672:	4701                	li	a4,0
    80003674:	b755                	j	80003618 <__subsf3+0x28c>
    80003676:	fc0007b7          	lui	a5,0xfc000
    8000367a:	17fd                	addi	a5,a5,-1
    8000367c:	40e90733          	sub	a4,s2,a4
    80003680:	8fe5                	and	a5,a5,s1
    80003682:	b585                	j	800034e2 <__subsf3+0x156>
    80003684:	8742                	mv	a4,a6
    80003686:	bdb1                	j	800034e2 <__subsf3+0x156>
    80003688:	87b6                	mv	a5,a3
    8000368a:	bda1                	j	800034e2 <__subsf3+0x156>
    8000368c:	87b6                	mv	a5,a3
    8000368e:	bb61                	j	80003426 <__subsf3+0x9a>
    80003690:	0ff00713          	li	a4,255
    80003694:	4781                	li	a5,0
    80003696:	02579693          	slli	a3,a5,0x25
    8000369a:	0006db63          	bgez	a3,800036b0 <__subsf3+0x324>
    8000369e:	0705                	addi	a4,a4,1
    800036a0:	0ff00693          	li	a3,255
    800036a4:	04d70163          	beq	a4,a3,800036e6 <__subsf3+0x35a>
    800036a8:	fc0006b7          	lui	a3,0xfc000
    800036ac:	16fd                	addi	a3,a3,-1
    800036ae:	8ff5                	and	a5,a5,a3
    800036b0:	0ff00693          	li	a3,255
    800036b4:	838d                	srli	a5,a5,0x3
    800036b6:	00d71663          	bne	a4,a3,800036c2 <__subsf3+0x336>
    800036ba:	c781                	beqz	a5,800036c2 <__subsf3+0x336>
    800036bc:	004007b7          	lui	a5,0x400
    800036c0:	4401                	li	s0,0
    800036c2:	60e2                	ld	ra,24(sp)
    800036c4:	01f4151b          	slliw	a0,s0,0x1f
    800036c8:	0ff77713          	andi	a4,a4,255
    800036cc:	6442                	ld	s0,16(sp)
    800036ce:	17a6                	slli	a5,a5,0x29
    800036d0:	0177171b          	slliw	a4,a4,0x17
    800036d4:	93a5                	srli	a5,a5,0x29
    800036d6:	8fd9                	or	a5,a5,a4
    800036d8:	64a2                	ld	s1,8(sp)
    800036da:	6902                	ld	s2,0(sp)
    800036dc:	8d5d                	or	a0,a0,a5
    800036de:	6105                	addi	sp,sp,32
    800036e0:	8082                	ret
    800036e2:	87b2                	mv	a5,a2
    800036e4:	bbfd                	j	800034e2 <__subsf3+0x156>
    800036e6:	4781                	li	a5,0
    800036e8:	b7e1                	j	800036b0 <__subsf3+0x324>

00000000800036ea <__fixsfsi>:
    800036ea:	00800637          	lui	a2,0x800
    800036ee:	fff60793          	addi	a5,a2,-1 # 7fffff <_tbss_end+0x7fffff>
    800036f2:	0175569b          	srliw	a3,a0,0x17
    800036f6:	8fe9                	and	a5,a5,a0
    800036f8:	0ff6f693          	andi	a3,a3,255
    800036fc:	07e00593          	li	a1,126
    80003700:	2781                	sext.w	a5,a5
    80003702:	01f5571b          	srliw	a4,a0,0x1f
    80003706:	04d5f663          	bgeu	a1,a3,80003752 <__fixsfsi+0x68>
    8000370a:	09d00593          	li	a1,157
    8000370e:	00d5f863          	bgeu	a1,a3,8000371e <__fixsfsi+0x34>
    80003712:	80000537          	lui	a0,0x80000
    80003716:	fff54513          	not	a0,a0
    8000371a:	9d39                	addw	a0,a0,a4
    8000371c:	8082                	ret
    8000371e:	02079513          	slli	a0,a5,0x20
    80003722:	9101                	srli	a0,a0,0x20
    80003724:	8d51                	or	a0,a0,a2
    80003726:	09500613          	li	a2,149
    8000372a:	0006879b          	sext.w	a5,a3
    8000372e:	00d67a63          	bgeu	a2,a3,80003742 <__fixsfsi+0x58>
    80003732:	f6a7879b          	addiw	a5,a5,-150
    80003736:	00f5153b          	sllw	a0,a0,a5
    8000373a:	cf09                	beqz	a4,80003754 <__fixsfsi+0x6a>
    8000373c:	40a0053b          	negw	a0,a0
    80003740:	8082                	ret
    80003742:	09600693          	li	a3,150
    80003746:	40f687bb          	subw	a5,a3,a5
    8000374a:	00f55533          	srl	a0,a0,a5
    8000374e:	2501                	sext.w	a0,a0
    80003750:	b7ed                	j	8000373a <__fixsfsi+0x50>
    80003752:	4501                	li	a0,0
    80003754:	8082                	ret

0000000080003756 <__floatsisf>:
    80003756:	1101                	addi	sp,sp,-32
    80003758:	ec06                	sd	ra,24(sp)
    8000375a:	e822                	sd	s0,16(sp)
    8000375c:	e426                	sd	s1,8(sp)
    8000375e:	e04a                	sd	s2,0(sp)
    80003760:	cd55                	beqz	a0,8000381c <__floatsisf+0xc6>
    80003762:	0005049b          	sext.w	s1,a0
    80003766:	03f55913          	srli	s2,a0,0x3f
    8000376a:	00055463          	bgez	a0,80003772 <__floatsisf+0x1c>
    8000376e:	409004bb          	negw	s1,s1
    80003772:	02049413          	slli	s0,s1,0x20
    80003776:	9001                	srli	s0,s0,0x20
    80003778:	8522                	mv	a0,s0
    8000377a:	2a8000ef          	jal	ra,80003a22 <__clzdi2>
    8000377e:	0be00793          	li	a5,190
    80003782:	9f89                	subw	a5,a5,a0
    80003784:	09600713          	li	a4,150
    80003788:	02f74663          	blt	a4,a5,800037b4 <__floatsisf+0x5e>
    8000378c:	00e78663          	beq	a5,a4,80003798 <__floatsisf+0x42>
    80003790:	40f7053b          	subw	a0,a4,a5
    80003794:	00a41433          	sll	s0,s0,a0
    80003798:	1426                	slli	s0,s0,0x29
    8000379a:	0177979b          	slliw	a5,a5,0x17
    8000379e:	9025                	srli	s0,s0,0x29
    800037a0:	8c5d                	or	s0,s0,a5
    800037a2:	01f9151b          	slliw	a0,s2,0x1f
    800037a6:	60e2                	ld	ra,24(sp)
    800037a8:	8d41                	or	a0,a0,s0
    800037aa:	6442                	ld	s0,16(sp)
    800037ac:	64a2                	ld	s1,8(sp)
    800037ae:	6902                	ld	s2,0(sp)
    800037b0:	6105                	addi	sp,sp,32
    800037b2:	8082                	ret
    800037b4:	09900713          	li	a4,153
    800037b8:	00f75f63          	bge	a4,a5,800037d6 <__floatsisf+0x80>
    800037bc:	0b900693          	li	a3,185
    800037c0:	f677871b          	addiw	a4,a5,-153
    800037c4:	9e9d                	subw	a3,a3,a5
    800037c6:	00e4d73b          	srlw	a4,s1,a4
    800037ca:	00d494bb          	sllw	s1,s1,a3
    800037ce:	009034b3          	snez	s1,s1
    800037d2:	8cd9                	or	s1,s1,a4
    800037d4:	2481                	sext.w	s1,s1
    800037d6:	09900713          	li	a4,153
    800037da:	1482                	slli	s1,s1,0x20
    800037dc:	8f1d                	sub	a4,a4,a5
    800037de:	9081                	srli	s1,s1,0x20
    800037e0:	00e05763          	blez	a4,800037ee <__floatsisf+0x98>
    800037e4:	09900713          	li	a4,153
    800037e8:	9f1d                	subw	a4,a4,a5
    800037ea:	00e494b3          	sll	s1,s1,a4
    800037ee:	fc000437          	lui	s0,0xfc000
    800037f2:	147d                	addi	s0,s0,-1
    800037f4:	0074f713          	andi	a4,s1,7
    800037f8:	8c65                	and	s0,s0,s1
    800037fa:	c711                	beqz	a4,80003806 <__floatsisf+0xb0>
    800037fc:	88bd                	andi	s1,s1,15
    800037fe:	4711                	li	a4,4
    80003800:	00e48363          	beq	s1,a4,80003806 <__floatsisf+0xb0>
    80003804:	0411                	addi	s0,s0,4
    80003806:	02541713          	slli	a4,s0,0x25
    8000380a:	00075763          	bgez	a4,80003818 <__floatsisf+0xc2>
    8000380e:	fc000737          	lui	a4,0xfc000
    80003812:	177d                	addi	a4,a4,-1
    80003814:	8c79                	and	s0,s0,a4
    80003816:	0785                	addi	a5,a5,1
    80003818:	800d                	srli	s0,s0,0x3
    8000381a:	bfbd                	j	80003798 <__floatsisf+0x42>
    8000381c:	4401                	li	s0,0
    8000381e:	4781                	li	a5,0
    80003820:	4901                	li	s2,0
    80003822:	bf9d                	j	80003798 <__floatsisf+0x42>

0000000080003824 <__floatunsisf>:
    80003824:	1101                	addi	sp,sp,-32
    80003826:	ec06                	sd	ra,24(sp)
    80003828:	e822                	sd	s0,16(sp)
    8000382a:	e426                	sd	s1,8(sp)
    8000382c:	c15d                	beqz	a0,800038d2 <__floatunsisf+0xae>
    8000382e:	02051413          	slli	s0,a0,0x20
    80003832:	9001                	srli	s0,s0,0x20
    80003834:	84aa                	mv	s1,a0
    80003836:	8522                	mv	a0,s0
    80003838:	1ea000ef          	jal	ra,80003a22 <__clzdi2>
    8000383c:	0be00793          	li	a5,190
    80003840:	9f89                	subw	a5,a5,a0
    80003842:	09600713          	li	a4,150
    80003846:	02f74263          	blt	a4,a5,8000386a <__floatunsisf+0x46>
    8000384a:	00e78663          	beq	a5,a4,80003856 <__floatunsisf+0x32>
    8000384e:	40f7053b          	subw	a0,a4,a5
    80003852:	00a41433          	sll	s0,s0,a0
    80003856:	1426                	slli	s0,s0,0x29
    80003858:	9025                	srli	s0,s0,0x29
    8000385a:	0177951b          	slliw	a0,a5,0x17
    8000385e:	60e2                	ld	ra,24(sp)
    80003860:	8d41                	or	a0,a0,s0
    80003862:	6442                	ld	s0,16(sp)
    80003864:	64a2                	ld	s1,8(sp)
    80003866:	6105                	addi	sp,sp,32
    80003868:	8082                	ret
    8000386a:	09900713          	li	a4,153
    8000386e:	00f75f63          	bge	a4,a5,8000388c <__floatunsisf+0x68>
    80003872:	0b900513          	li	a0,185
    80003876:	9d1d                	subw	a0,a0,a5
    80003878:	00a4953b          	sllw	a0,s1,a0
    8000387c:	f677871b          	addiw	a4,a5,-153
    80003880:	00a03533          	snez	a0,a0
    80003884:	00e4d4bb          	srlw	s1,s1,a4
    80003888:	8cc9                	or	s1,s1,a0
    8000388a:	2481                	sext.w	s1,s1
    8000388c:	09900713          	li	a4,153
    80003890:	1482                	slli	s1,s1,0x20
    80003892:	8f1d                	sub	a4,a4,a5
    80003894:	9081                	srli	s1,s1,0x20
